///////////////////////////////////////////////////////////////////////////////
//                                                                            /
// IAR C/C++ Compiler V8.30.1.41636 for 8051            09/Jun/2015  22:15:20 /
// Copyright 2004-2013 IAR Systems AB.                                        /
// Standalone license - IAR Embedded Workbench for 8051 8.30                  /
//                                                                            /
//    Core               =  plain                                             /
//    Code model         =  banked                                            /
//    Data model         =  large                                             /
//    Calling convention =  xdata reentrant                                   /
//    Constant location  =  data_rom                                          /
//    Dptr setup         =  1,16                                              /
//                                                                            /
//    Source file        =  C:\Texas Instruments\ZStack-CC2530-2.5.1a\Project /
//                          s\zstack\Samples\GenericApp\Source\GenericApp.c   /
//    Command line       =  -f "C:\Texas Instruments\ZStack-CC2530-2.5.1a\Pro /
//                          jects\zstack\Samples\GenericApp\CC2530DB\..\..\.. /
//                          \Tools\CC2530DB\f8wEndev.cfg" (-DCPU32MHZ         /
//                          -DROOT=__near_func -DMAC_CFG_TX_DATA_MAX=3        /
//                          -DMAC_CFG_TX_MAX=6 -DMAC_CFG_RX_MAX=3) -f         /
//                          "C:\Texas Instruments\ZStack-CC2530-2.5.1a\Projec /
//                          ts\zstack\Samples\GenericApp\CC2530DB\..\..\..\To /
//                          ols\CC2530DB\f8wConfig.cfg" (-DZIGBEEPRO          /
//                          -DSECURE=0 -DZG_SECURE_DYNAMIC=0 -DREFLECTOR      /
//                          -DDEFAULT_CHANLIST=0x00000800                     /
//                          -DZDAPP_CONFIG_PAN_ID=0xFFFF                      /
//                          -DNWK_START_DELAY=100 -DEXTENDED_JOINING_RANDOM_M /
//                          ASK=0x007F -DBEACON_REQUEST_DELAY=100             /
//                          -DBEACON_REQ_DELAY_MASK=0x00FF                    /
//                          -DLINK_STATUS_JITTER_MASK=0x007F                  /
//                          -DROUTE_EXPIRY_TIME=30 -DAPSC_ACK_WAIT_DURATION_P /
//                          OLLED=3000 -DNWK_INDIRECT_MSG_TIMEOUT=7           /
//                          -DMAX_RREQ_ENTRIES=8 -DAPSC_MAX_FRAME_RETRIES=3   /
//                          -DNWK_MAX_DATA_RETRIES=2                          /
//                          -DMAX_POLL_FAILURE_RETRIES=2 -DMAX_BCAST=9        /
//                          -DAPS_MAX_GROUPS=16 -DMAX_RTG_ENTRIES=40          /
//                          -DNWK_MAX_BINDING_ENTRIES=4                       /
//                          -DMAX_BINDING_CLUSTER_IDS=4                       /
//                          "-DDEFAULT_KEY={0x01, 0x03, 0x05, 0x07, 0x09,     /
//                          0x0B, 0x0D, 0x0F, 0x00, 0x02, 0x04, 0x06, 0x08,   /
//                          0x0A, 0x0C, 0x0D}" -DMAC_MAX_FRAME_SIZE=116       /
//                          -DZDNWKMGR_MIN_TRANSMISSIONS=20 "-DCONST=const    /
//                          __code" -DGENERIC=__generic                       /
//                          -DRFD_RCVC_ALWAYS_ON=FALSE -DPOLL_RATE=0          /
//                          -DQUEUED_POLL_RATE=100 -DRESPONSE_POLL_RATE=100)  /
//                          -DREJOIN_POLL_RATE=440 "C:\Texas                  /
//                          Instruments\ZStack-CC2530-2.5.1a\Projects\zstack\ /
//                          Samples\GenericApp\Source\GenericApp.c" -D        /
//                          NWK_AUTO_POLL -D ZTOOL_P1 -D MT_TASK -D           /
//                          MT_SYS_FUNC -D MT_ZDO_FUNC -D                     /
//                          LCD_SUPPORTED=DEBUG -D xPOWER_SAVING -D           /
//                          ENDDEVICE -lC "C:\Texas                           /
//                          Instruments\ZStack-CC2530-2.5.1a\Projects\zstack\ /
//                          Samples\GenericApp\CC2530DB\EndDeviceEB\List\"    /
//                          -lA "C:\Texas Instruments\ZStack-CC2530-2.5.1a\Pr /
//                          ojects\zstack\Samples\GenericApp\CC2530DB\EndDevi /
//                          ceEB\List\" --diag_suppress Pe001,Pa010 -o        /
//                          "C:\Texas Instruments\ZStack-CC2530-2.5.1a\Projec /
//                          ts\zstack\Samples\GenericApp\CC2530DB\EndDeviceEB /
//                          \Obj\" -e --no_code_motion --debug --core=plain   /
//                          --dptr=16,1 --data_model=large                    /
//                          --code_model=banked --calling_convention=xdata_re /
//                          entrant --place_constants=data_rom                /
//                          --nr_virtual_regs 8 -I "C:\Texas                  /
//                          Instruments\ZStack-CC2530-2.5.1a\Projects\zstack\ /
//                          Samples\GenericApp\CC2530DB\" -I "C:\Texas        /
//                          Instruments\ZStack-CC2530-2.5.1a\Projects\zstack\ /
//                          Samples\GenericApp\CC2530DB\..\Source\" -I        /
//                          "C:\Texas Instruments\ZStack-CC2530-2.5.1a\Projec /
//                          ts\zstack\Samples\GenericApp\CC2530DB\..\..\..\ZM /
//                          ain\TI2530DB\" -I "C:\Texas                       /
//                          Instruments\ZStack-CC2530-2.5.1a\Projects\zstack\ /
//                          Samples\GenericApp\CC2530DB\..\..\..\..\..\Compon /
//                          ents\hal\include\" -I "C:\Texas                   /
//                          Instruments\ZStack-CC2530-2.5.1a\Projects\zstack\ /
//                          Samples\GenericApp\CC2530DB\..\..\..\..\..\Compon /
//                          ents\hal\target\CC2530EB\" -I "C:\Texas           /
//                          Instruments\ZStack-CC2530-2.5.1a\Projects\zstack\ /
//                          Samples\GenericApp\CC2530DB\..\..\..\..\..\Compon /
//                          ents\mac\include\" -I "C:\Texas                   /
//                          Instruments\ZStack-CC2530-2.5.1a\Projects\zstack\ /
//                          Samples\GenericApp\CC2530DB\..\..\..\..\..\Compon /
//                          ents\mac\high_level\" -I "C:\Texas                /
//                          Instruments\ZStack-CC2530-2.5.1a\Projects\zstack\ /
//                          Samples\GenericApp\CC2530DB\..\..\..\..\..\Compon /
//                          ents\mac\low_level\srf04\" -I "C:\Texas           /
//                          Instruments\ZStack-CC2530-2.5.1a\Projects\zstack\ /
//                          Samples\GenericApp\CC2530DB\..\..\..\..\..\Compon /
//                          ents\mac\low_level\srf04\single_chip\" -I         /
//                          "C:\Texas Instruments\ZStack-CC2530-2.5.1a\Projec /
//                          ts\zstack\Samples\GenericApp\CC2530DB\..\..\..\.. /
//                          \..\Components\mt\" -I "C:\Texas                  /
//                          Instruments\ZStack-CC2530-2.5.1a\Projects\zstack\ /
//                          Samples\GenericApp\CC2530DB\..\..\..\..\..\Compon /
//                          ents\osal\include\" -I "C:\Texas                  /
//                          Instruments\ZStack-CC2530-2.5.1a\Projects\zstack\ /
//                          Samples\GenericApp\CC2530DB\..\..\..\..\..\Compon /
//                          ents\services\saddr\" -I "C:\Texas                /
//                          Instruments\ZStack-CC2530-2.5.1a\Projects\zstack\ /
//                          Samples\GenericApp\CC2530DB\..\..\..\..\..\Compon /
//                          ents\services\sdata\" -I "C:\Texas                /
//                          Instruments\ZStack-CC2530-2.5.1a\Projects\zstack\ /
//                          Samples\GenericApp\CC2530DB\..\..\..\..\..\Compon /
//                          ents\stack\af\" -I "C:\Texas                      /
//                          Instruments\ZStack-CC2530-2.5.1a\Projects\zstack\ /
//                          Samples\GenericApp\CC2530DB\..\..\..\..\..\Compon /
//                          ents\stack\nwk\" -I "C:\Texas                     /
//                          Instruments\ZStack-CC2530-2.5.1a\Projects\zstack\ /
//                          Samples\GenericApp\CC2530DB\..\..\..\..\..\Compon /
//                          ents\stack\sapi\" -I "C:\Texas                    /
//                          Instruments\ZStack-CC2530-2.5.1a\Projects\zstack\ /
//                          Samples\GenericApp\CC2530DB\..\..\..\..\..\Compon /
//                          ents\stack\sec\" -I "C:\Texas                     /
//                          Instruments\ZStack-CC2530-2.5.1a\Projects\zstack\ /
//                          Samples\GenericApp\CC2530DB\..\..\..\..\..\Compon /
//                          ents\stack\sys\" -I "C:\Texas                     /
//                          Instruments\ZStack-CC2530-2.5.1a\Projects\zstack\ /
//                          Samples\GenericApp\CC2530DB\..\..\..\..\..\Compon /
//                          ents\stack\zdo\" -I "C:\Texas                     /
//                          Instruments\ZStack-CC2530-2.5.1a\Projects\zstack\ /
//                          Samples\GenericApp\CC2530DB\..\..\..\..\..\Compon /
//                          ents\zmac\" -I "C:\Texas                          /
//                          Instruments\ZStack-CC2530-2.5.1a\Projects\zstack\ /
//                          Samples\GenericApp\CC2530DB\..\..\..\..\..\Compon /
//                          ents\zmac\f8w\" -Ohz --require_prototypes         /
//    List file          =  C:\Texas Instruments\ZStack-CC2530-2.5.1a\Project /
//                          s\zstack\Samples\GenericApp\CC2530DB\EndDeviceEB\ /
//                          List\GenericApp.s51                               /
//                                                                            /
//                                                                            /
///////////////////////////////////////////////////////////////////////////////

        NAME GenericApp

        RTMODEL "__SystemLibrary", "CLib"
        RTMODEL "__calling_convention", "xdata_reentrant"
        RTMODEL "__code_model", "banked"
        RTMODEL "__core", "plain"
        RTMODEL "__data_model", "large"
        RTMODEL "__dptr_size", "16"
        RTMODEL "__extended_stack", "disabled"
        RTMODEL "__location_for_constants", "data"
        RTMODEL "__number_of_dptrs", "1"
        RTMODEL "__rt_version", "1"

        RSEG DOVERLAY:DATA:NOROOT(0)
        RSEG IOVERLAY:IDATA:NOROOT(0)
        RSEG ISTACK:IDATA:NOROOT(0)
        RSEG PSTACK:XDATA:NOROOT(0)
        RSEG XSTACK:XDATA:NOROOT(0)

        EXTERN ?V0
        EXTERN ?V1
        EXTERN ?V2
        EXTERN ?V3
        EXTERN ?V4
        EXTERN ?V5
        EXTERN ?ALLOC_XSTACK8
        EXTERN ?BANKED_ENTER_XDATA
        EXTERN ?BANKED_LEAVE_XDATA
        EXTERN ?BDISPATCH
        EXTERN ?DEALLOC_XSTACK8
        EXTERN ?MOVE_LONG8_XDATA_XDATA
        EXTERN ?PUSH_XSTACK_I_ONE
        EXTERN ?PUSH_XSTACK_I_TWO
        EXTERN ?US_SWITCH_SPARSE
        EXTERN ?XSP
        EXTERN ?XSTACK_DISP0_8
        EXTERN ?XSTACK_DISP100_8
        EXTERN ?XSTACK_DISP101_8
        EXTERN __INIT_XDATA_Z

        FUNCTION ??GenericApp_HandleKeys?relay,0203H
        PUBLIC ??GenericApp_Init?relay
        FUNCTION ??GenericApp_Init?relay,0203H
        PUBLIC ??GenericApp_ProcessEvent?relay
        FUNCTION ??GenericApp_ProcessEvent?relay,0203H
        PUBLIC GenericApp_ClusterCtrlList
        PUBLIC GenericApp_ClusterList
        PUBLIC GenericApp_DstAddr
        FUNCTION GenericApp_HandleKeys,0a1203H
        ARGFRAME XSTACK, 26, STACK
        ARGFRAME IOVERLAY, 0, STATIC
        ARGFRAME DOVERLAY, 0, STATIC
        LOCFRAME XSTACK, 29, STACK
        PUBLIC GenericApp_Init
        FUNCTION GenericApp_Init,021203H
        ARGFRAME XSTACK, 0, STACK
        LOCFRAME XSTACK, 9, STACK
        PUBLIC GenericApp_NwkState
        PUBLIC GenericApp_ProcessEvent
        FUNCTION GenericApp_ProcessEvent,0a1203H
        ARGFRAME XSTACK, 0, STACK
        LOCFRAME XSTACK, 35, STACK
        PUBLIC GenericApp_SimpleCtrlDesc
        PUBLIC GenericApp_SimpleDesc
        PUBLIC GenericApp_TaskID
        PUBLIC GenericApp_TransID
        PUBLIC GenericApp_ctrlEpDesc
        PUBLIC GenericApp_epDesc
        PUBLIC SendMsgTimeout
        PUBLIC count
        
          CFI Names cfiNames0
          CFI StackFrame CFA_SP SP IDATA
          CFI StackFrame CFA_PSP16 PSP16 XDATA
          CFI StackFrame CFA_XSP16 XSP16 XDATA
          CFI StaticOverlayFrame CFA_IOVERLAY IOVERLAY
          CFI StaticOverlayFrame CFA_DOVERLAY DOVERLAY
          CFI Resource `PSW.CY`:1, `B.BR0`:1, `B.BR1`:1, `B.BR2`:1, `B.BR3`:1
          CFI Resource `B.BR4`:1, `B.BR5`:1, `B.BR6`:1, `B.BR7`:1, `VB.BR8`:1
          CFI Resource `VB.BR9`:1, `VB.BR10`:1, `VB.BR11`:1, `VB.BR12`:1
          CFI Resource `VB.BR13`:1, `VB.BR14`:1, `VB.BR15`:1, VB:8, B:8, A:8
          CFI Resource PSW:8, DPL0:8, DPH0:8, R0:8, R1:8, R2:8, R3:8, R4:8, R5:8
          CFI Resource R6:8, R7:8, V0:8, V1:8, V2:8, V3:8, V4:8, V5:8, V6:8, V7:8
          CFI Resource SP:8, PSPH:8, PSPL:8, PSP16:16, XSPH:8, XSPL:8, XSP16:16
          CFI VirtualResource ?RET:24
          CFI Resource ?BRET_EXT:8
          CFI VirtualResource ?RET_HIGH:8, ?RET_LOW:8
          CFI ResourceParts PSP16 PSPH, PSPL
          CFI ResourceParts XSP16 XSPH, XSPL
          CFI ResourceParts ?RET ?BRET_EXT, ?RET_HIGH, ?RET_LOW
          CFI EndNames cfiNames0
        
          CFI Common cfiCommon0 Using cfiNames0
          CFI CodeAlign 1
          CFI DataAlign -1
          CFI ReturnAddress ?RET CODE
          CFI CFA_DOVERLAY Used
          CFI CFA_IOVERLAY Used
          CFI CFA_SP SP+-3
          CFI CFA_PSP16 PSP16+0
          CFI CFA_XSP16 XSP16+0
          CFI `PSW.CY` SameValue
          CFI `B.BR0` SameValue
          CFI `B.BR1` SameValue
          CFI `B.BR2` SameValue
          CFI `B.BR3` SameValue
          CFI `B.BR4` SameValue
          CFI `B.BR5` SameValue
          CFI `B.BR6` SameValue
          CFI `B.BR7` SameValue
          CFI `VB.BR8` SameValue
          CFI `VB.BR9` SameValue
          CFI `VB.BR10` SameValue
          CFI `VB.BR11` SameValue
          CFI `VB.BR12` SameValue
          CFI `VB.BR13` SameValue
          CFI `VB.BR14` SameValue
          CFI `VB.BR15` SameValue
          CFI VB SameValue
          CFI B Undefined
          CFI A Undefined
          CFI PSW SameValue
          CFI DPL0 SameValue
          CFI DPH0 SameValue
          CFI R0 Undefined
          CFI R1 Undefined
          CFI R2 Undefined
          CFI R3 Undefined
          CFI R4 Undefined
          CFI R5 Undefined
          CFI R6 SameValue
          CFI R7 SameValue
          CFI V0 SameValue
          CFI V1 SameValue
          CFI V2 SameValue
          CFI V3 SameValue
          CFI V4 SameValue
          CFI V5 SameValue
          CFI V6 SameValue
          CFI V7 SameValue
          CFI PSPH Undefined
          CFI PSPL Undefined
          CFI XSPH Undefined
          CFI XSPL Undefined
          CFI ?RET Concat
          CFI ?BRET_EXT Frame(CFA_SP, 3)
          CFI ?RET_HIGH Frame(CFA_SP, 2)
          CFI ?RET_LOW Frame(CFA_SP, 1)
          CFI EndCommon cfiCommon0
        
        
          CFI Common cfiCommon1 Using cfiNames0
          CFI CodeAlign 1
          CFI DataAlign -1
          CFI ReturnAddress ?RET CODE
          CFI CFA_DOVERLAY Used
          CFI CFA_IOVERLAY Used
          CFI CFA_SP SP+-2
          CFI CFA_PSP16 PSP16+0
          CFI CFA_XSP16 XSP16+0
          CFI `PSW.CY` SameValue
          CFI `B.BR0` SameValue
          CFI `B.BR1` SameValue
          CFI `B.BR2` SameValue
          CFI `B.BR3` SameValue
          CFI `B.BR4` SameValue
          CFI `B.BR5` SameValue
          CFI `B.BR6` SameValue
          CFI `B.BR7` SameValue
          CFI `VB.BR8` SameValue
          CFI `VB.BR9` SameValue
          CFI `VB.BR10` SameValue
          CFI `VB.BR11` SameValue
          CFI `VB.BR12` SameValue
          CFI `VB.BR13` SameValue
          CFI `VB.BR14` SameValue
          CFI `VB.BR15` SameValue
          CFI VB SameValue
          CFI B SameValue
          CFI A SameValue
          CFI PSW SameValue
          CFI DPL0 SameValue
          CFI DPH0 SameValue
          CFI R0 SameValue
          CFI R1 SameValue
          CFI R2 SameValue
          CFI R3 SameValue
          CFI R4 SameValue
          CFI R5 SameValue
          CFI R6 SameValue
          CFI R7 SameValue
          CFI V0 SameValue
          CFI V1 SameValue
          CFI V2 SameValue
          CFI V3 SameValue
          CFI V4 SameValue
          CFI V5 SameValue
          CFI V6 SameValue
          CFI V7 SameValue
          CFI PSPH Undefined
          CFI PSPL Undefined
          CFI XSPH Undefined
          CFI XSPL Undefined
          CFI ?RET Concat
          CFI ?BRET_EXT SameValue
          CFI ?RET_HIGH Frame(CFA_SP, 2)
          CFI ?RET_LOW Frame(CFA_SP, 1)
          CFI EndCommon cfiCommon1
        
AF_DataRequest      SYMBOL "AF_DataRequest"
??AF_DataRequest?relay SYMBOL "?relay", AF_DataRequest
HalLcdWriteScreen   SYMBOL "HalLcdWriteScreen"
??HalLcdWriteScreen?relay SYMBOL "?relay", HalLcdWriteScreen
HalLcdWriteString   SYMBOL "HalLcdWriteString"
??HalLcdWriteString?relay SYMBOL "?relay", HalLcdWriteString
HalLcdWriteValue    SYMBOL "HalLcdWriteValue"
??HalLcdWriteValue?relay SYMBOL "?relay", HalLcdWriteValue
HalLedSet           SYMBOL "HalLedSet"
??HalLedSet?relay   SYMBOL "?relay", HalLedSet
NLME_GetShortAddr   SYMBOL "NLME_GetShortAddr"
??NLME_GetShortAddr?relay SYMBOL "?relay", NLME_GetShortAddr
RegisterForKeys     SYMBOL "RegisterForKeys"
??RegisterForKeys?relay SYMBOL "?relay", RegisterForKeys
ZDO_ParseEPListRsp  SYMBOL "ZDO_ParseEPListRsp"
??ZDO_ParseEPListRsp?relay SYMBOL "?relay", ZDO_ParseEPListRsp
ZDO_RegisterForZDOMsg SYMBOL "ZDO_RegisterForZDOMsg"
??ZDO_RegisterForZDOMsg?relay SYMBOL "?relay", ZDO_RegisterForZDOMsg
ZDP_EndDeviceBindReq SYMBOL "ZDP_EndDeviceBindReq"
??ZDP_EndDeviceBindReq?relay SYMBOL "?relay", ZDP_EndDeviceBindReq
ZDP_MatchDescReq    SYMBOL "ZDP_MatchDescReq"
??ZDP_MatchDescReq?relay SYMBOL "?relay", ZDP_MatchDescReq
afRegister          SYMBOL "afRegister"
??afRegister?relay  SYMBOL "?relay", afRegister
osal_mem_free       SYMBOL "osal_mem_free"
??osal_mem_free?relay SYMBOL "?relay", osal_mem_free
osal_msg_deallocate SYMBOL "osal_msg_deallocate"
??osal_msg_deallocate?relay SYMBOL "?relay", osal_msg_deallocate
osal_msg_receive    SYMBOL "osal_msg_receive"
??osal_msg_receive?relay SYMBOL "?relay", osal_msg_receive
osal_start_timerEx  SYMBOL "osal_start_timerEx"
??osal_start_timerEx?relay SYMBOL "?relay", osal_start_timerEx
osal_strlen         SYMBOL "osal_strlen"
??osal_strlen?relay SYMBOL "?relay", osal_strlen
GenericApp_Init     SYMBOL "GenericApp_Init"
??GenericApp_Init?relay SYMBOL "?relay", GenericApp_Init
GenericApp_ProcessEvent SYMBOL "GenericApp_ProcessEvent"
??GenericApp_ProcessEvent?relay SYMBOL "?relay", GenericApp_ProcessEvent

        EXTERN ??AF_DataRequest?relay
        FUNCTION ??AF_DataRequest?relay,00H
        EXTERN ??HalLcdWriteScreen?relay
        FUNCTION ??HalLcdWriteScreen?relay,00H
        EXTERN ??HalLcdWriteString?relay
        FUNCTION ??HalLcdWriteString?relay,00H
        EXTERN ??HalLcdWriteValue?relay
        FUNCTION ??HalLcdWriteValue?relay,00H
        EXTERN ??HalLedSet?relay
        FUNCTION ??HalLedSet?relay,00H
        EXTERN ??NLME_GetShortAddr?relay
        FUNCTION ??NLME_GetShortAddr?relay,00H
        EXTERN ??RegisterForKeys?relay
        FUNCTION ??RegisterForKeys?relay,00H
        EXTERN ??ZDO_ParseEPListRsp?relay
        FUNCTION ??ZDO_ParseEPListRsp?relay,00H
        EXTERN ??ZDO_RegisterForZDOMsg?relay
        FUNCTION ??ZDO_RegisterForZDOMsg?relay,00H
        EXTERN ??ZDP_EndDeviceBindReq?relay
        FUNCTION ??ZDP_EndDeviceBindReq?relay,00H
        EXTERN ??ZDP_MatchDescReq?relay
        FUNCTION ??ZDP_MatchDescReq?relay,00H
        EXTERN ??afRegister?relay
        FUNCTION ??afRegister?relay,00H
        EXTERN ??osal_mem_free?relay
        FUNCTION ??osal_mem_free?relay,00H
        EXTERN ??osal_msg_deallocate?relay
        FUNCTION ??osal_msg_deallocate?relay,00H
        EXTERN ??osal_msg_receive?relay
        FUNCTION ??osal_msg_receive?relay,00H
        EXTERN ??osal_start_timerEx?relay
        FUNCTION ??osal_start_timerEx?relay,00H
        EXTERN ??osal_strlen?relay
        FUNCTION ??osal_strlen?relay,00H
        EXTERN AF_DataRequest
        FUNCTION AF_DataRequest,0202H
        ARGFRAME ISTACK, 0, STACK
        ARGFRAME PSTACK, 0, STACK
        ARGFRAME XSTACK, 35, STACK
        ARGFRAME IOVERLAY, 0, STATIC
        ARGFRAME DOVERLAY, 0, STATIC
        EXTERN HalLcdWriteScreen
        FUNCTION HalLcdWriteScreen,0202H
        ARGFRAME ISTACK, 0, STACK
        ARGFRAME PSTACK, 0, STACK
        ARGFRAME XSTACK, 26, STACK
        ARGFRAME IOVERLAY, 0, STATIC
        ARGFRAME DOVERLAY, 0, STATIC
        EXTERN HalLcdWriteString
        FUNCTION HalLcdWriteString,0202H
        ARGFRAME ISTACK, 0, STACK
        ARGFRAME PSTACK, 0, STACK
        ARGFRAME XSTACK, 9, STACK
        ARGFRAME IOVERLAY, 0, STATIC
        ARGFRAME DOVERLAY, 0, STATIC
        EXTERN HalLcdWriteValue
        FUNCTION HalLcdWriteValue,0202H
        ARGFRAME ISTACK, 0, STACK
        ARGFRAME PSTACK, 0, STACK
        ARGFRAME XSTACK, 27, STACK
        ARGFRAME IOVERLAY, 0, STATIC
        ARGFRAME DOVERLAY, 0, STATIC
        EXTERN HalLedSet
        FUNCTION HalLedSet,0202H
        ARGFRAME ISTACK, 0, STACK
        ARGFRAME PSTACK, 0, STACK
        ARGFRAME XSTACK, 26, STACK
        ARGFRAME IOVERLAY, 0, STATIC
        ARGFRAME DOVERLAY, 0, STATIC
        EXTERN NLME_GetShortAddr
        FUNCTION NLME_GetShortAddr,0202H
        ARGFRAME ISTACK, 0, STACK
        ARGFRAME PSTACK, 0, STACK
        ARGFRAME XSTACK, 20, STACK
        ARGFRAME IOVERLAY, 0, STATIC
        ARGFRAME DOVERLAY, 0, STATIC
        EXTERN RegisterForKeys
        FUNCTION RegisterForKeys,0202H
        ARGFRAME ISTACK, 0, STACK
        ARGFRAME PSTACK, 0, STACK
        ARGFRAME XSTACK, 9, STACK
        ARGFRAME IOVERLAY, 0, STATIC
        ARGFRAME DOVERLAY, 0, STATIC
        EXTERN ZDO_ParseEPListRsp
        FUNCTION ZDO_ParseEPListRsp,0202H
        ARGFRAME ISTACK, 0, STACK
        ARGFRAME PSTACK, 0, STACK
        ARGFRAME XSTACK, 26, STACK
        ARGFRAME IOVERLAY, 0, STATIC
        ARGFRAME DOVERLAY, 0, STATIC
        EXTERN ZDO_RegisterForZDOMsg
        FUNCTION ZDO_RegisterForZDOMsg,0202H
        ARGFRAME ISTACK, 0, STACK
        ARGFRAME PSTACK, 0, STACK
        ARGFRAME XSTACK, 9, STACK
        ARGFRAME IOVERLAY, 0, STATIC
        ARGFRAME DOVERLAY, 0, STATIC
        EXTERN ZDP_EndDeviceBindReq
        FUNCTION ZDP_EndDeviceBindReq,0202H
        ARGFRAME ISTACK, 0, STACK
        ARGFRAME PSTACK, 0, STACK
        ARGFRAME XSTACK, 29, STACK
        ARGFRAME IOVERLAY, 0, STATIC
        ARGFRAME DOVERLAY, 0, STATIC
        EXTERN ZDP_MatchDescReq
        FUNCTION ZDP_MatchDescReq,0202H
        ARGFRAME ISTACK, 0, STACK
        ARGFRAME PSTACK, 0, STACK
        ARGFRAME XSTACK, 28, STACK
        ARGFRAME IOVERLAY, 0, STATIC
        ARGFRAME DOVERLAY, 0, STATIC
        EXTERN afRegister
        FUNCTION afRegister,0202H
        ARGFRAME ISTACK, 0, STACK
        ARGFRAME PSTACK, 0, STACK
        ARGFRAME XSTACK, 9, STACK
        ARGFRAME IOVERLAY, 0, STATIC
        ARGFRAME DOVERLAY, 0, STATIC
        EXTERN osal_mem_free
        FUNCTION osal_mem_free,0202H
        ARGFRAME ISTACK, 0, STACK
        ARGFRAME PSTACK, 0, STACK
        ARGFRAME XSTACK, 26, STACK
        ARGFRAME IOVERLAY, 0, STATIC
        ARGFRAME DOVERLAY, 0, STATIC
        EXTERN osal_msg_deallocate
        FUNCTION osal_msg_deallocate,0202H
        ARGFRAME ISTACK, 0, STACK
        ARGFRAME PSTACK, 0, STACK
        ARGFRAME XSTACK, 26, STACK
        ARGFRAME IOVERLAY, 0, STATIC
        ARGFRAME DOVERLAY, 0, STATIC
        EXTERN osal_msg_receive
        FUNCTION osal_msg_receive,0202H
        ARGFRAME ISTACK, 0, STACK
        ARGFRAME PSTACK, 0, STACK
        ARGFRAME XSTACK, 26, STACK
        ARGFRAME IOVERLAY, 0, STATIC
        ARGFRAME DOVERLAY, 0, STATIC
        EXTERN osal_start_timerEx
        FUNCTION osal_start_timerEx,0202H
        ARGFRAME ISTACK, 0, STACK
        ARGFRAME PSTACK, 0, STACK
        ARGFRAME XSTACK, 26, STACK
        ARGFRAME IOVERLAY, 0, STATIC
        ARGFRAME DOVERLAY, 0, STATIC
        EXTERN osal_strlen
        FUNCTION osal_strlen,0202H
        ARGFRAME ISTACK, 0, STACK
        ARGFRAME PSTACK, 0, STACK
        ARGFRAME XSTACK, 31, STACK
        ARGFRAME IOVERLAY, 0, STATIC
        ARGFRAME DOVERLAY, 0, STATIC

// C:\Texas Instruments\ZStack-CC2530-2.5.1a\Projects\zstack\Samples\GenericApp\Source\GenericApp.c
//    1 /******************************************************************************
//    2   Filename:       GenericApp.c
//    3   Revised:        $Date: 2012-03-07 01:04:58 -0800 (Wed, 07 Mar 2012) $
//    4   Revision:       $Revision: 29656 $
//    5 
//    6   Description:    Generic Application (no Profile).
//    7 
//    8 
//    9   Copyright 2004-2012 Texas Instruments Incorporated. All rights reserved.
//   10 
//   11   IMPORTANT: Your use of this Software is limited to those specific rights
//   12   granted under the terms of a software license agreement between the user
//   13   who downloaded the software, his/her employer (which must be your employer)
//   14   and Texas Instruments Incorporated (the "License"). You may not use this
//   15   Software unless you agree to abide by the terms of the License. The License
//   16   limits your use, and you acknowledge, that the Software may not be modified,
//   17   copied or distributed unless embedded on a Texas Instruments microcontroller
//   18   or used solely and exclusively in conjunction with a Texas Instruments radio
//   19   frequency transceiver, which is integrated into your product. Other than for
//   20   the foregoing purpose, you may not use, reproduce, copy, prepare derivative
//   21   works of, modify, distribute, perform, display or sell this Software and/or
//   22   its documentation for any purpose.
//   23 
//   24   YOU FURTHER ACKNOWLEDGE AND AGREE THAT THE SOFTWARE AND DOCUMENTATION ARE
//   25   PROVIDED “AS IS” WITHOUT WARRANTY OF ANY KIND, EITHER EXPRESS OR IMPLIED,
//   26   INCLUDING WITHOUT LIMITATION, ANY WARRANTY OF MERCHANTABILITY, TITLE,
//   27   NON-INFRINGEMENT AND FITNESS FOR A PARTICULAR PURPOSE. IN NO EVENT SHALL
//   28   TEXAS INSTRUMENTS OR ITS LICENSORS BE LIABLE OR OBLIGATED UNDER CONTRACT,
//   29   NEGLIGENCE, STRICT LIABILITY, CONTRIBUTION, BREACH OF WARRANTY, OR OTHER
//   30   LEGAL EQUITABLE THEORY ANY DIRECT OR INDIRECT DAMAGES OR EXPENSES
//   31   INCLUDING BUT NOT LIMITED TO ANY INCIDENTAL, SPECIAL, INDIRECT, PUNITIVE
//   32   OR CONSEQUENTIAL DAMAGES, LOST PROFITS OR LOST DATA, COST OF PROCUREMENT
//   33   OF SUBSTITUTE GOODS, TECHNOLOGY, SERVICES, OR ANY CLAIMS BY THIRD PARTIES
//   34   (INCLUDING BUT NOT LIMITED TO ANY DEFENSE THEREOF), OR OTHER SIMILAR COSTS.
//   35 
//   36   Should you have any questions regarding your right to use this Software,
//   37   contact Texas Instruments Incorporated at www.TI.com.
//   38 ******************************************************************************/
//   39 
//   40 /*********************************************************************
//   41   This application isn't intended to do anything useful, it is
//   42   intended to be a simple example of an application's structure.
//   43 
//   44   This application sends "Hello World" to another "Generic"
//   45   application every 5 seconds.  The application will also
//   46   receives "Hello World" packets.
//   47 
//   48   The "Hello World" messages are sent/received as MSG type message.
//   49 
//   50   This applications doesn't have a profile, so it handles everything
//   51   directly - itself.
//   52 
//   53   Key control:
//   54     SW1:
//   55     SW2:  initiates end device binding
//   56     SW3:
//   57     SW4:  initiates a match description request
//   58 *********************************************************************/
//   59 
//   60 /*********************************************************************
//   61  * INCLUDES
//   62  */
//   63 #include "OSAL.h"
//   64 #include "AF.h"
//   65 #include "ZDApp.h"
//   66 #include "ZDObject.h"
//   67 #include "ZDProfile.h"
//   68 
//   69 #include "GenericApp.h"
//   70 #include "DebugTrace.h"
//   71 
//   72 #if !defined( WIN32 )
//   73   #include "OnBoard.h"
//   74 #endif
//   75 
//   76 /* HAL */
//   77 #include "hal_lcd.h"
//   78 #include "hal_led.h"
//   79 #include "hal_key.h"
//   80 #include "hal_uart.h"
//   81 
//   82 /* RTOS */
//   83 #if defined( IAR_ARMCM3_LM )
//   84 #include "RTOS_App.h"
//   85 #endif  
//   86 
//   87 /*********************************************************************
//   88  * MACROS
//   89  */
//   90 
//   91 /*********************************************************************
//   92  * CONSTANTS
//   93  */
//   94 
//   95 /*********************************************************************
//   96  * TYPEDEFS
//   97  */
//   98 
//   99 /*********************************************************************
//  100  * GLOBAL VARIABLES
//  101  */
//  102 // This list should be filled with Application specific Cluster IDs.

        RSEG XDATA_ROM_C:CONST:REORDER:NOROOT(0)
        DATA16
//  103 const cId_t GenericApp_ClusterList[GENERICAPP_MAX_CLUSTERS] =
GenericApp_ClusterList:
        DW 1
//  104 {
//  105   GENERICAPP_CLUSTERID
//  106 };
//  107 
//  108 // This list is for our new timeout control cluster

        RSEG XDATA_ROM_C:CONST:REORDER:NOROOT(0)
        DATA16
//  109 const cId_t GenericApp_ClusterCtrlList[GENERICAPP_MAX_CTRL_CLUSTERS] =
GenericApp_ClusterCtrlList:
        DW 2
//  110 {
//  111   GENERICAPP_TIMEOUT_CLUSTER
//  112 };
//  113 

        RSEG XDATA_ROM_C:CONST:REORDER:NOROOT(0)
        DATA8
//  114 const SimpleDescriptionFormat_t GenericApp_SimpleDesc =
GenericApp_SimpleDesc:
        DB 10
        DATA16
        DW 3844
        DW 1
        DATA8
        DB 0
        DB 1
        DATA16
        DW GenericApp_ClusterList
        DATA8
        DB 1
        DATA16
        DW GenericApp_ClusterList
//  115 {
//  116   GENERICAPP_ENDPOINT,              //  int Endpoint;
//  117   GENERICAPP_PROFID,                //  uint16 AppProfId[2];
//  118   GENERICAPP_DEVICEID,              //  uint16 AppDeviceId[2];
//  119   GENERICAPP_DEVICE_VERSION,        //  int   AppDevVer:4;
//  120   GENERICAPP_FLAGS,                 //  int   AppFlags:4;
//  121   GENERICAPP_MAX_CLUSTERS,          //  byte  AppNumInClusters;
//  122   (cId_t *)GenericApp_ClusterList,  //  byte *pAppInClusterList;
//  123   GENERICAPP_MAX_CLUSTERS,          //  byte  AppNumInClusters;
//  124   (cId_t *)GenericApp_ClusterList   //  byte *pAppInClusterList;
//  125 };
//  126 
//  127 // This is the Endpoint/Interface description.  It is defined here, but
//  128 // filled-in in GenericApp_Init().  Another way to go would be to fill
//  129 // in the structure here and make it a "const" (in code space).  The
//  130 // way it's defined in this sample app it is define in RAM.

        RSEG XDATA_Z:XDATA:NOROOT(0)
        DATA8
//  131 endPointDesc_t GenericApp_epDesc;
GenericApp_epDesc:
        DS 6
        REQUIRE __INIT_XDATA_Z
//  132 
//  133 // Simple Descriptor for Control Clusters

        RSEG XDATA_ROM_C:CONST:REORDER:NOROOT(0)
        DATA8
//  134 const SimpleDescriptionFormat_t GenericApp_SimpleCtrlDesc =
GenericApp_SimpleCtrlDesc:
        DB 85
        DATA16
        DW 3844
        DW 1
        DATA8
        DB 0
        DB 0
        DATA16
        DW 0H
        DATA8
        DB 1
        DATA16
        DW GenericApp_ClusterCtrlList
//  135 {
//  136   GENERICAPP_CTRL_ENDPOINT,               //  int Endpoint;
//  137   GENERICAPP_PROFID,                	  //  uint16 AppProfId[2];
//  138   GENERICAPP_DEVICEID,             	  //  uint16 AppDeviceId[2];
//  139   GENERICAPP_DEVICE_VERSION,       	  //  int   AppDevVer:4;
//  140   GENERICAPP_FLAGS,                 	  //  int   AppFlags:4;
//  141 #if !defined(COORDINATOR)                 //  Router and End Device
//  142   0,                                      //  no input clusters
//  143   (cId_t *) NULL,
//  144   GENERICAPP_MAX_CTRL_CLUSTERS,           //  byte  AppNumOutClusters;
//  145   (cId_t *)GenericApp_ClusterCtrlList,    //  byte *pAppOutClusterList;
//  146 #endif
//  147 #if defined(COORDINATOR)                  //  Coordinator
//  148   GENERICAPP_MAX_CTRL_CLUSTERS,           //  byte  AppNumInClusters;
//  149   (cId_t *)GenericApp_ClusterCtrlList,    //  byte *pAppInClusterList;
//  150   0,                                      //  no output clusters
//  151   (cId_t *) NULL,
//  152 #endif
//  153 };
//  154 
//  155 // Endpoint Descriptor for Control Clusters
//  156 #if !defined(COORDINATOR)

        RSEG XDATA_Z:XDATA:NOROOT(0)
        DATA8
//  157 endPointDesc_t GenericApp_ctrlEpDesc;
GenericApp_ctrlEpDesc:
        DS 6
        REQUIRE __INIT_XDATA_Z
//  158 #endif
//  159 
//  160 /*********************************************************************
//  161  * EXTERNAL VARIABLES
//  162  */
//  163 
//  164 /*********************************************************************
//  165  * EXTERNAL FUNCTIONS
//  166  */
//  167 
//  168 /*********************************************************************
//  169  * LOCAL VARIABLES
//  170  */

        RSEG XDATA_Z:XDATA:NOROOT(0)
        DATA8
//  171 byte GenericApp_TaskID;   // Task ID for internal task/event processing
GenericApp_TaskID:
        DS 1
        REQUIRE __INIT_XDATA_Z
//  172                           // This variable will be received when
//  173                           // GenericApp_Init() is called.

        RSEG XDATA_Z:XDATA:NOROOT(0)
        DATA8
//  174 devStates_t GenericApp_NwkState;
GenericApp_NwkState:
        DS 1
        REQUIRE __INIT_XDATA_Z
//  175 
//  176 

        RSEG XDATA_Z:XDATA:NOROOT(0)
        DATA8
//  177 byte GenericApp_TransID;  // This is the unique message ID (counter)
GenericApp_TransID:
        DS 1
        REQUIRE __INIT_XDATA_Z
//  178 

        RSEG XDATA_Z:XDATA:NOROOT(0)
        DATA8
//  179 afAddrType_t GenericApp_DstAddr;
GenericApp_DstAddr:
        DS 12
        REQUIRE __INIT_XDATA_Z
//  180 

        RSEG XDATA_Z:XDATA:NOROOT(0)
        DATA16
//  181 uint16 count=0;
count:
        DS 2
        REQUIRE __INIT_XDATA_Z
//  182 

        RSEG XDATA_Z:XDATA:NOROOT(0)
        DATA16
//  183 uint16 SendMsgTimeout;
SendMsgTimeout:
        DS 2
        REQUIRE __INIT_XDATA_Z
//  184 
//  185 /*********************************************************************
//  186  * LOCAL FUNCTIONS
//  187  */
//  188 static void GenericApp_ProcessZDOMsgs( zdoIncomingMsg_t *inMsg );
//  189 static void GenericApp_HandleKeys( byte shift, byte keys );
//  190 static void GenericApp_MessageMSGCB( afIncomingMSGPacket_t *pckt );
//  191 static void GenericApp_SendTheMessage( void );
//  192 
//  193 #if defined( IAR_ARMCM3_LM )
//  194 static void GenericApp_ProcessRtosMessage( void );
//  195 #endif
//  196 
//  197 /*********************************************************************
//  198  * NETWORK LAYER CALLBACKS
//  199  */
//  200 
//  201 /*********************************************************************
//  202  * PUBLIC FUNCTIONS
//  203  */
//  204 
//  205 /*********************************************************************
//  206  * @fn      GenericApp_Init
//  207  *
//  208  * @brief   Initialization function for the Generic App Task.
//  209  *          This is called during initialization and should contain
//  210  *          any application specific initialization (ie. hardware
//  211  *          initialization/setup, table initialization, power up
//  212  *          notificaiton ... ).
//  213  *
//  214  * @param   task_id - the ID assigned by OSAL.  This ID should be
//  215  *                    used to send messages and set timers.
//  216  *
//  217  * @return  none
//  218  */

        RSEG BANKED_CODE:CODE:NOROOT(0)
//  219 void GenericApp_Init( uint8 task_id )
GenericApp_Init:
          CFI Block cfiBlock0 Using cfiCommon0
          CFI Function GenericApp_Init
        CODE
//  220 {
        FUNCALL GenericApp_Init, afRegister
        LOCFRAME ISTACK, 0, STACK
        LOCFRAME PSTACK, 0, STACK
        LOCFRAME XSTACK, 9, STACK
        LOCFRAME IOVERLAY, 0, STATIC
        LOCFRAME DOVERLAY, 0, STATIC
        ARGFRAME ISTACK, 0, STACK
        ARGFRAME PSTACK, 0, STACK
        ARGFRAME XSTACK, 9, STACK
        ARGFRAME IOVERLAY, 0, STATIC
        ARGFRAME DOVERLAY, 0, STATIC
        FUNCALL GenericApp_Init, RegisterForKeys
        LOCFRAME ISTACK, 0, STACK
        LOCFRAME PSTACK, 0, STACK
        LOCFRAME XSTACK, 9, STACK
        LOCFRAME IOVERLAY, 0, STATIC
        LOCFRAME DOVERLAY, 0, STATIC
        ARGFRAME ISTACK, 0, STACK
        ARGFRAME PSTACK, 0, STACK
        ARGFRAME XSTACK, 9, STACK
        ARGFRAME IOVERLAY, 0, STATIC
        ARGFRAME DOVERLAY, 0, STATIC
        FUNCALL GenericApp_Init, HalLcdWriteString
        LOCFRAME ISTACK, 0, STACK
        LOCFRAME PSTACK, 0, STACK
        LOCFRAME XSTACK, 9, STACK
        LOCFRAME IOVERLAY, 0, STATIC
        LOCFRAME DOVERLAY, 0, STATIC
        ARGFRAME ISTACK, 0, STACK
        ARGFRAME PSTACK, 0, STACK
        ARGFRAME XSTACK, 9, STACK
        ARGFRAME IOVERLAY, 0, STATIC
        ARGFRAME DOVERLAY, 0, STATIC
        FUNCALL GenericApp_Init, ZDO_RegisterForZDOMsg
        LOCFRAME ISTACK, 0, STACK
        LOCFRAME PSTACK, 0, STACK
        LOCFRAME XSTACK, 9, STACK
        LOCFRAME IOVERLAY, 0, STATIC
        LOCFRAME DOVERLAY, 0, STATIC
        ARGFRAME ISTACK, 0, STACK
        ARGFRAME PSTACK, 0, STACK
        ARGFRAME XSTACK, 9, STACK
        ARGFRAME IOVERLAY, 0, STATIC
        ARGFRAME DOVERLAY, 0, STATIC
        FUNCALL GenericApp_Init, ZDO_RegisterForZDOMsg
        LOCFRAME ISTACK, 0, STACK
        LOCFRAME PSTACK, 0, STACK
        LOCFRAME XSTACK, 9, STACK
        LOCFRAME IOVERLAY, 0, STATIC
        LOCFRAME DOVERLAY, 0, STATIC
        ARGFRAME ISTACK, 0, STACK
        ARGFRAME PSTACK, 0, STACK
        ARGFRAME XSTACK, 9, STACK
        ARGFRAME IOVERLAY, 0, STATIC
        ARGFRAME DOVERLAY, 0, STATIC
        FUNCALL GenericApp_Init, afRegister
        LOCFRAME ISTACK, 0, STACK
        LOCFRAME PSTACK, 0, STACK
        LOCFRAME XSTACK, 9, STACK
        LOCFRAME IOVERLAY, 0, STATIC
        LOCFRAME DOVERLAY, 0, STATIC
        ARGFRAME ISTACK, 0, STACK
        ARGFRAME PSTACK, 0, STACK
        ARGFRAME XSTACK, 9, STACK
        ARGFRAME IOVERLAY, 0, STATIC
        ARGFRAME DOVERLAY, 0, STATIC
        MOV     A,#-0x9
        LCALL   ?BANKED_ENTER_XDATA
          CFI DPH0 load(1, XDATA, add(CFA_XSP16, literal(-1)))
          CFI DPL0 load(1, XDATA, add(CFA_XSP16, literal(-2)))
          CFI ?BRET_EXT load(1, XDATA, add(CFA_XSP16, literal(-3)))
          CFI ?RET_HIGH load(1, XDATA, add(CFA_XSP16, literal(-4)))
          CFI ?RET_LOW load(1, XDATA, add(CFA_XSP16, literal(-5)))
          CFI R7 load(1, XDATA, add(CFA_XSP16, literal(-6)))
          CFI V0 load(1, XDATA, add(CFA_XSP16, literal(-7)))
          CFI VB load(1, XDATA, add(CFA_XSP16, literal(-8)))
          CFI R6 load(1, XDATA, add(CFA_XSP16, literal(-9)))
          CFI CFA_SP SP+0
          CFI CFA_XSP16 add(XSP16, 9)
        ; Saved register size: 9
        ; Auto size: 0
        MOV     A,R1
//  221   GenericApp_TaskID = task_id;
        MOV     DPTR,#GenericApp_TaskID
        MOVX    @DPTR,A
//  222   GenericApp_NwkState = DEV_INIT;
        MOV     DPTR,#GenericApp_NwkState
        MOV     A,#0x1
        MOVX    @DPTR,A
//  223   GenericApp_TransID = 0;
        MOV     DPTR,#GenericApp_TransID
        CLR     A
        MOVX    @DPTR,A
//  224   
//  225   SendMsgTimeout = SEND_MSG_TIMEOUT_DEFAULT;
        MOV     DPTR,#SendMsgTimeout
        MOV     A,#-0x78
        MOVX    @DPTR,A
        INC     DPTR
        MOV     A,#0x13
        MOVX    @DPTR,A
//  226 
//  227   // Device hardware initialization can be added here or in main() (Zmain.c).
//  228   // If the hardware is application specific - add it here.
//  229   // If the hardware is other parts of the device add it in main().
//  230 
//  231   GenericApp_DstAddr.addrMode = (afAddrMode_t)AddrNotPresent;
        MOV     DPTR,#GenericApp_DstAddr + 8
        CLR     A
        MOVX    @DPTR,A
//  232   GenericApp_DstAddr.endPoint = 0;
        INC     DPTR
        MOVX    @DPTR,A
//  233   GenericApp_DstAddr.addr.shortAddr = 0;
        MOV     DPTR,#GenericApp_DstAddr
        MOVX    @DPTR,A
        INC     DPTR
        MOVX    @DPTR,A
//  234 
//  235   // Fill out the endpoint description.
//  236   GenericApp_epDesc.endPoint = GENERICAPP_ENDPOINT;
        MOV     DPTR,#GenericApp_epDesc
        MOV     A,#0xa
        LCALL   ?Subroutine1 & 0xFFFF
//  237   GenericApp_epDesc.task_id = &GenericApp_TaskID;
//  238   GenericApp_epDesc.simpleDesc
//  239             = (SimpleDescriptionFormat_t *)&GenericApp_SimpleDesc;
??CrossCallReturnLabel_2:
        MOV     A,#GenericApp_SimpleDesc & 0xff
        MOVX    @DPTR,A
        INC     DPTR
        MOV     A,#(GenericApp_SimpleDesc >> 8) & 0xff
        MOVX    @DPTR,A
//  240   GenericApp_epDesc.latencyReq = noLatencyReqs;
        INC     DPTR
        CLR     A
        MOVX    @DPTR,A
//  241 
//  242   // Register the endpoint description with the AF
//  243   afRegister( &GenericApp_epDesc );
        ; Setup parameters for call to function afRegister
        MOV     R2,#GenericApp_epDesc & 0xff
        MOV     R3,#(GenericApp_epDesc >> 8) & 0xff
        LCALL   ??afRegister?relay   ; Banked call to: afRegister
//  244 
//  245   // Register for all key events - This app will handle all key events
//  246   RegisterForKeys( GenericApp_TaskID );
        ; Setup parameters for call to function RegisterForKeys
        MOV     DPTR,#GenericApp_TaskID
        MOVX    A,@DPTR
        MOV     R1,A
        LCALL   ??RegisterForKeys?relay; Banked call to: RegisterForKeys
//  247 
//  248   // Update the display
//  249 #if defined ( LCD_SUPPORTED )
//  250   HalLcdWriteString( "GenericApp", HAL_LCD_LINE_1 );
        ; Setup parameters for call to function HalLcdWriteString
        MOV     R1,#0x1
        MOV     R2,#`?<Constant "GenericApp">` & 0xff
        MOV     R3,#(`?<Constant "GenericApp">` >> 8) & 0xff
        LCALL   ??HalLcdWriteString?relay; Banked call to: HalLcdWriteString
//  251 #endif
//  252 
//  253   ZDO_RegisterForZDOMsg( GenericApp_TaskID, End_Device_Bind_rsp );
        ; Setup parameters for call to function ZDO_RegisterForZDOMsg
        MOV     R2,#0x20
        MOV     R3,#-0x80
        MOV     DPTR,#GenericApp_TaskID
        MOVX    A,@DPTR
        MOV     R1,A
        LCALL   ??ZDO_RegisterForZDOMsg?relay; Banked call to: ZDO_RegisterForZDOMsg
//  254   ZDO_RegisterForZDOMsg( GenericApp_TaskID, Match_Desc_rsp );
        ; Setup parameters for call to function ZDO_RegisterForZDOMsg
        MOV     R2,#0x6
        MOV     R3,#-0x80
        MOV     DPTR,#GenericApp_TaskID
        MOVX    A,@DPTR
        MOV     R1,A
        LCALL   ??ZDO_RegisterForZDOMsg?relay; Banked call to: ZDO_RegisterForZDOMsg
//  255   
//  256   // populate and register the new control descriptors with the AF
//  257 #if !defined(COORDINATOR)
//  258   GenericApp_ctrlEpDesc.endPoint = GENERICAPP_CTRL_ENDPOINT;
        MOV     DPTR,#GenericApp_ctrlEpDesc
        MOV     A,#0x55
        LCALL   ?Subroutine1 & 0xFFFF
//  259   GenericApp_ctrlEpDesc.task_id = & GenericApp_TaskID;
//  260   GenericApp_ctrlEpDesc.simpleDesc
//  261             = (SimpleDescriptionFormat_t *)& GenericApp_SimpleCtrlDesc;
??CrossCallReturnLabel_3:
        MOV     A,#GenericApp_SimpleCtrlDesc & 0xff
        MOVX    @DPTR,A
        INC     DPTR
        MOV     A,#(GenericApp_SimpleCtrlDesc >> 8) & 0xff
        MOVX    @DPTR,A
//  262   GenericApp_ctrlEpDesc.latencyReq = noLatencyReqs;
        INC     DPTR
        CLR     A
        MOVX    @DPTR,A
//  263 
//  264   afRegister( & GenericApp_ctrlEpDesc );
        ; Setup parameters for call to function afRegister
        MOV     R2,#GenericApp_ctrlEpDesc & 0xff
        MOV     R3,#(GenericApp_ctrlEpDesc >> 8) & 0xff
        LCALL   ??afRegister?relay   ; Banked call to: afRegister
//  265 #endif
//  266   
//  267 
//  268 #if defined( IAR_ARMCM3_LM )
//  269   // Register this task with RTOS task initiator
//  270   RTOS_RegisterApp( task_id, GENERICAPP_RTOS_MSG_EVT );
//  271 #endif
//  272 }
        MOV     R7,#0x1
        LJMP    ?BANKED_LEAVE_XDATA
          CFI EndBlock cfiBlock0

        RSEG BANKED_CODE:CODE:NOROOT(0)
?Subroutine1:
          CFI Block cfiCond1 Using cfiCommon0
          CFI Function GenericApp_Init
          CFI Conditional ??CrossCallReturnLabel_2
          CFI R6 load(1, XDATA, add(CFA_XSP16, literal(-9)))
          CFI VB load(1, XDATA, add(CFA_XSP16, literal(-8)))
          CFI V0 load(1, XDATA, add(CFA_XSP16, literal(-7)))
          CFI R7 load(1, XDATA, add(CFA_XSP16, literal(-6)))
          CFI ?RET_LOW load(1, XDATA, add(CFA_XSP16, literal(-5)))
          CFI ?RET_HIGH load(1, XDATA, add(CFA_XSP16, literal(-4)))
          CFI ?BRET_EXT load(1, XDATA, add(CFA_XSP16, literal(-3)))
          CFI DPL0 load(1, XDATA, add(CFA_XSP16, literal(-2)))
          CFI DPH0 load(1, XDATA, add(CFA_XSP16, literal(-1)))
          CFI CFA_SP SP+-2
          CFI CFA_XSP16 add(XSP16, 9)
          CFI Block cfiCond2 Using cfiCommon0
          CFI (cfiCond2) Function GenericApp_Init
          CFI (cfiCond2) Conditional ??CrossCallReturnLabel_3
          CFI (cfiCond2) R6 load(1, XDATA, add(CFA_XSP16, literal(-9)))
          CFI (cfiCond2) VB load(1, XDATA, add(CFA_XSP16, literal(-8)))
          CFI (cfiCond2) V0 load(1, XDATA, add(CFA_XSP16, literal(-7)))
          CFI (cfiCond2) R7 load(1, XDATA, add(CFA_XSP16, literal(-6)))
          CFI (cfiCond2) ?RET_LOW load(1, XDATA, add(CFA_XSP16, literal(-5)))
          CFI (cfiCond2) ?RET_HIGH load(1, XDATA, add(CFA_XSP16, literal(-4)))
          CFI (cfiCond2) ?BRET_EXT load(1, XDATA, add(CFA_XSP16, literal(-3)))
          CFI (cfiCond2) DPL0 load(1, XDATA, add(CFA_XSP16, literal(-2)))
          CFI (cfiCond2) DPH0 load(1, XDATA, add(CFA_XSP16, literal(-1)))
          CFI (cfiCond2) CFA_SP SP+-2
          CFI (cfiCond2) CFA_XSP16 add(XSP16, 9)
          CFI Block cfiPicker3 Using cfiCommon1
          CFI (cfiPicker3) NoFunction
          CFI (cfiPicker3) Picker
        MOVX    @DPTR,A
        INC     DPTR
        MOV     A,#GenericApp_TaskID & 0xff
        MOVX    @DPTR,A
        INC     DPTR
        MOV     A,#(GenericApp_TaskID >> 8) & 0xff
        MOVX    @DPTR,A
        INC     DPTR
        RET
          CFI EndBlock cfiCond1
          CFI EndBlock cfiCond2
          CFI EndBlock cfiPicker3
//  273 
//  274 /*********************************************************************
//  275  * @fn      GenericApp_ProcessEvent
//  276  *
//  277  * @brief   Generic Application Task event processor.  This function
//  278  *          is called to process all events for the task.  Events
//  279  *          include timers, messages and any other user defined events.
//  280  *
//  281  * @param   task_id  - The OSAL assigned task ID.
//  282  * @param   events - events to process.  This is a bit map and can
//  283  *                   contain more than one event.
//  284  *
//  285  * @return  none
//  286  */

        RSEG BANKED_CODE:CODE:NOROOT(0)
//  287 uint16 GenericApp_ProcessEvent( uint8 task_id, uint16 events )
GenericApp_ProcessEvent:
          CFI Block cfiBlock4 Using cfiCommon0
          CFI Function GenericApp_ProcessEvent
        CODE
//  288 {
        FUNCALL GenericApp_ProcessEvent, osal_msg_receive
        LOCFRAME ISTACK, 0, STACK
        LOCFRAME PSTACK, 0, STACK
        LOCFRAME XSTACK, 26, STACK
        LOCFRAME IOVERLAY, 0, STATIC
        LOCFRAME DOVERLAY, 0, STATIC
        ARGFRAME ISTACK, 0, STACK
        ARGFRAME PSTACK, 0, STACK
        ARGFRAME XSTACK, 26, STACK
        ARGFRAME IOVERLAY, 0, STATIC
        ARGFRAME DOVERLAY, 0, STATIC
        FUNCALL GenericApp_ProcessEvent, osal_start_timerEx
        LOCFRAME ISTACK, 0, STACK
        LOCFRAME PSTACK, 0, STACK
        LOCFRAME XSTACK, 26, STACK
        LOCFRAME IOVERLAY, 0, STATIC
        LOCFRAME DOVERLAY, 0, STATIC
        ARGFRAME ISTACK, 0, STACK
        ARGFRAME PSTACK, 0, STACK
        ARGFRAME XSTACK, 26, STACK
        ARGFRAME IOVERLAY, 0, STATIC
        ARGFRAME DOVERLAY, 0, STATIC
        FUNCALL GenericApp_ProcessEvent, osal_msg_deallocate
        LOCFRAME ISTACK, 0, STACK
        LOCFRAME PSTACK, 0, STACK
        LOCFRAME XSTACK, 26, STACK
        LOCFRAME IOVERLAY, 0, STATIC
        LOCFRAME DOVERLAY, 0, STATIC
        ARGFRAME ISTACK, 0, STACK
        ARGFRAME PSTACK, 0, STACK
        ARGFRAME XSTACK, 26, STACK
        ARGFRAME IOVERLAY, 0, STATIC
        ARGFRAME DOVERLAY, 0, STATIC
        FUNCALL GenericApp_ProcessEvent, osal_msg_receive
        LOCFRAME ISTACK, 0, STACK
        LOCFRAME PSTACK, 0, STACK
        LOCFRAME XSTACK, 26, STACK
        LOCFRAME IOVERLAY, 0, STATIC
        LOCFRAME DOVERLAY, 0, STATIC
        ARGFRAME ISTACK, 0, STACK
        ARGFRAME PSTACK, 0, STACK
        ARGFRAME XSTACK, 26, STACK
        ARGFRAME IOVERLAY, 0, STATIC
        ARGFRAME DOVERLAY, 0, STATIC
        FUNCALL GenericApp_ProcessEvent, ZDO_ParseEPListRsp
        LOCFRAME ISTACK, 0, STACK
        LOCFRAME PSTACK, 0, STACK
        LOCFRAME XSTACK, 26, STACK
        LOCFRAME IOVERLAY, 0, STATIC
        LOCFRAME DOVERLAY, 0, STATIC
        ARGFRAME ISTACK, 0, STACK
        ARGFRAME PSTACK, 0, STACK
        ARGFRAME XSTACK, 26, STACK
        ARGFRAME IOVERLAY, 0, STATIC
        ARGFRAME DOVERLAY, 0, STATIC
        FUNCALL GenericApp_ProcessEvent, HalLedSet
        LOCFRAME ISTACK, 0, STACK
        LOCFRAME PSTACK, 0, STACK
        LOCFRAME XSTACK, 26, STACK
        LOCFRAME IOVERLAY, 0, STATIC
        LOCFRAME DOVERLAY, 0, STATIC
        ARGFRAME ISTACK, 0, STACK
        ARGFRAME PSTACK, 0, STACK
        ARGFRAME XSTACK, 26, STACK
        ARGFRAME IOVERLAY, 0, STATIC
        ARGFRAME DOVERLAY, 0, STATIC
        FUNCALL GenericApp_ProcessEvent, osal_mem_free
        LOCFRAME ISTACK, 0, STACK
        LOCFRAME PSTACK, 0, STACK
        LOCFRAME XSTACK, 26, STACK
        LOCFRAME IOVERLAY, 0, STATIC
        LOCFRAME DOVERLAY, 0, STATIC
        ARGFRAME ISTACK, 0, STACK
        ARGFRAME PSTACK, 0, STACK
        ARGFRAME XSTACK, 26, STACK
        ARGFRAME IOVERLAY, 0, STATIC
        ARGFRAME DOVERLAY, 0, STATIC
        FUNCALL GenericApp_ProcessEvent, HalLedSet
        LOCFRAME ISTACK, 0, STACK
        LOCFRAME PSTACK, 0, STACK
        LOCFRAME XSTACK, 26, STACK
        LOCFRAME IOVERLAY, 0, STATIC
        LOCFRAME DOVERLAY, 0, STATIC
        ARGFRAME ISTACK, 0, STACK
        ARGFRAME PSTACK, 0, STACK
        ARGFRAME XSTACK, 26, STACK
        ARGFRAME IOVERLAY, 0, STATIC
        ARGFRAME DOVERLAY, 0, STATIC
        FUNCALL GenericApp_ProcessEvent, HalLedSet
        LOCFRAME ISTACK, 0, STACK
        LOCFRAME PSTACK, 0, STACK
        LOCFRAME XSTACK, 26, STACK
        LOCFRAME IOVERLAY, 0, STATIC
        LOCFRAME DOVERLAY, 0, STATIC
        ARGFRAME ISTACK, 0, STACK
        ARGFRAME PSTACK, 0, STACK
        ARGFRAME XSTACK, 26, STACK
        ARGFRAME IOVERLAY, 0, STATIC
        ARGFRAME DOVERLAY, 0, STATIC
        FUNCALL GenericApp_ProcessEvent, GenericApp_HandleKeys
        LOCFRAME ISTACK, 0, STACK
        LOCFRAME PSTACK, 0, STACK
        LOCFRAME XSTACK, 26, STACK
        LOCFRAME IOVERLAY, 0, STATIC
        LOCFRAME DOVERLAY, 0, STATIC
        ARGFRAME ISTACK, 0, STACK
        ARGFRAME PSTACK, 0, STACK
        ARGFRAME XSTACK, 26, STACK
        ARGFRAME IOVERLAY, 0, STATIC
        ARGFRAME DOVERLAY, 0, STATIC
        FUNCALL GenericApp_ProcessEvent, HalLcdWriteScreen
        LOCFRAME ISTACK, 0, STACK
        LOCFRAME PSTACK, 0, STACK
        LOCFRAME XSTACK, 26, STACK
        LOCFRAME IOVERLAY, 0, STATIC
        LOCFRAME DOVERLAY, 0, STATIC
        ARGFRAME ISTACK, 0, STACK
        ARGFRAME PSTACK, 0, STACK
        ARGFRAME XSTACK, 26, STACK
        ARGFRAME IOVERLAY, 0, STATIC
        ARGFRAME DOVERLAY, 0, STATIC
        FUNCALL GenericApp_ProcessEvent, HalLcdWriteValue
        LOCFRAME ISTACK, 0, STACK
        LOCFRAME PSTACK, 0, STACK
        LOCFRAME XSTACK, 27, STACK
        LOCFRAME IOVERLAY, 0, STATIC
        LOCFRAME DOVERLAY, 0, STATIC
        ARGFRAME ISTACK, 0, STACK
        ARGFRAME PSTACK, 0, STACK
        ARGFRAME XSTACK, 27, STACK
        ARGFRAME IOVERLAY, 0, STATIC
        ARGFRAME DOVERLAY, 0, STATIC
        FUNCALL GenericApp_ProcessEvent, osal_strlen
        LOCFRAME ISTACK, 0, STACK
        LOCFRAME PSTACK, 0, STACK
        LOCFRAME XSTACK, 31, STACK
        LOCFRAME IOVERLAY, 0, STATIC
        LOCFRAME DOVERLAY, 0, STATIC
        ARGFRAME ISTACK, 0, STACK
        ARGFRAME PSTACK, 0, STACK
        ARGFRAME XSTACK, 31, STACK
        ARGFRAME IOVERLAY, 0, STATIC
        ARGFRAME DOVERLAY, 0, STATIC
        FUNCALL GenericApp_ProcessEvent, AF_DataRequest
        LOCFRAME ISTACK, 0, STACK
        LOCFRAME PSTACK, 0, STACK
        LOCFRAME XSTACK, 35, STACK
        LOCFRAME IOVERLAY, 0, STATIC
        LOCFRAME DOVERLAY, 0, STATIC
        ARGFRAME ISTACK, 0, STACK
        ARGFRAME PSTACK, 0, STACK
        ARGFRAME XSTACK, 35, STACK
        ARGFRAME IOVERLAY, 0, STATIC
        ARGFRAME DOVERLAY, 0, STATIC
        FUNCALL GenericApp_ProcessEvent, osal_start_timerEx
        LOCFRAME ISTACK, 0, STACK
        LOCFRAME PSTACK, 0, STACK
        LOCFRAME XSTACK, 26, STACK
        LOCFRAME IOVERLAY, 0, STATIC
        LOCFRAME DOVERLAY, 0, STATIC
        ARGFRAME ISTACK, 0, STACK
        ARGFRAME PSTACK, 0, STACK
        ARGFRAME XSTACK, 26, STACK
        ARGFRAME IOVERLAY, 0, STATIC
        ARGFRAME DOVERLAY, 0, STATIC
        REQUIRE ?V0
        REQUIRE ?V1
        REQUIRE ?V2
        REQUIRE ?V3
        REQUIRE ?V4
        REQUIRE ?V5
        MOV     A,#-0xe
        LCALL   ?BANKED_ENTER_XDATA
          CFI DPH0 load(1, XDATA, add(CFA_XSP16, literal(-1)))
          CFI DPL0 load(1, XDATA, add(CFA_XSP16, literal(-2)))
          CFI ?BRET_EXT load(1, XDATA, add(CFA_XSP16, literal(-3)))
          CFI ?RET_HIGH load(1, XDATA, add(CFA_XSP16, literal(-4)))
          CFI ?RET_LOW load(1, XDATA, add(CFA_XSP16, literal(-5)))
          CFI R7 load(1, XDATA, add(CFA_XSP16, literal(-6)))
          CFI V5 load(1, XDATA, add(CFA_XSP16, literal(-7)))
          CFI V4 load(1, XDATA, add(CFA_XSP16, literal(-8)))
          CFI V3 load(1, XDATA, add(CFA_XSP16, literal(-9)))
          CFI V2 load(1, XDATA, add(CFA_XSP16, literal(-10)))
          CFI V1 load(1, XDATA, add(CFA_XSP16, literal(-11)))
          CFI V0 load(1, XDATA, add(CFA_XSP16, literal(-12)))
          CFI VB load(1, XDATA, add(CFA_XSP16, literal(-13)))
          CFI R6 load(1, XDATA, add(CFA_XSP16, literal(-14)))
          CFI CFA_SP SP+0
          CFI CFA_XSP16 add(XSP16, 14)
        ; Saved register size: 14
        ; Auto size: 12
        MOV     A,#-0xc
        LCALL   ?ALLOC_XSTACK8
          CFI CFA_XSP16 add(XSP16, 26)
        MOV     ?V2,R2
        MOV     ?V3,R3
//  289   afIncomingMSGPacket_t *MSGpkt;
//  290   afDataConfirm_t *afDataConfirm;
//  291 
//  292   // Data Confirmation message fields
//  293   byte sentEP;
//  294   ZStatus_t sentStatus;
//  295   byte sentTransID;       // This should match the value sent
//  296   (void)task_id;  // Intentionally unreferenced parameter
//  297 
//  298   if ( events & SYS_EVENT_MSG )
        MOV     A,R3
        ANL     A,#0x80
        JNZ     $+5
        LJMP    ??GenericApp_ProcessEvent_0 & 0xFFFF
//  299   {
//  300     MSGpkt = (afIncomingMSGPacket_t *)osal_msg_receive( GenericApp_TaskID );
        ; Setup parameters for call to function osal_msg_receive
        SJMP    ??GenericApp_ProcessEvent_1
//  301     while ( MSGpkt )
//  302     {
//  303       switch ( MSGpkt->hdr.event )
//  304       {
//  305         case ZDO_CB_MSG:
//  306           GenericApp_ProcessZDOMsgs( (zdoIncomingMsg_t *)MSGpkt );
//  307           break;
//  308 
//  309         case KEY_CHANGE:
//  310           GenericApp_HandleKeys( ((keyChange_t *)MSGpkt)->state, ((keyChange_t *)MSGpkt)->keys );
//  311           break;
//  312 
//  313         case AF_DATA_CONFIRM_CMD:
//  314           // This message is received as a confirmation of a data packet sent.
//  315           // The status is of ZStatus_t type [defined in ZComDef.h]
//  316           // The message fields are defined in AF.h
//  317           afDataConfirm = (afDataConfirm_t *)MSGpkt;
//  318           sentEP = afDataConfirm->endpoint;
//  319           sentStatus = afDataConfirm->hdr.status;
//  320           sentTransID = afDataConfirm->transID;
//  321           (void)sentEP;
//  322           (void)sentTransID;
//  323 
//  324           // Action taken when confirmation is received.
//  325           if ( sentStatus != ZSuccess )
//  326           {
//  327             // The data wasn't delivered -- Do something
//  328           }
//  329           break;
//  330 
//  331         case AF_INCOMING_MSG_CMD:
//  332           GenericApp_MessageMSGCB( MSGpkt );
//  333           break;
//  334 
//  335         case ZDO_STATE_CHANGE:
//  336           GenericApp_NwkState = (devStates_t)(MSGpkt->hdr.status);
??GenericApp_ProcessEvent_2:
        INC     DPTR
        MOVX    A,@DPTR
        MOV     DPTR,#GenericApp_NwkState
        MOVX    @DPTR,A
//  337           if ( (GenericApp_NwkState == DEV_ZB_COORD)
//  338               || (GenericApp_NwkState == DEV_ROUTER)
//  339               || (GenericApp_NwkState == DEV_END_DEVICE) )
        XRL     A,#0x9
        JZ      ??GenericApp_ProcessEvent_3
        MOVX    A,@DPTR
        XRL     A,#0x7
        JZ      ??GenericApp_ProcessEvent_3
        MOVX    A,@DPTR
        XRL     A,#0x6
        JNZ     ??GenericApp_ProcessEvent_4
//  340           {
//  341             // Start sending "the" message in a regular interval.
//  342             osal_start_timerEx( GenericApp_TaskID,
//  343                                 GENERICAPP_SEND_MSG_EVT,
//  344                                 SendMsgTimeout);
??GenericApp_ProcessEvent_3:
        ; Setup parameters for call to function osal_start_timerEx
        MOV     DPTR,#SendMsgTimeout
        MOVX    A,@DPTR
        MOV     R4,A
        INC     DPTR
        MOVX    A,@DPTR
        MOV     R5,A
        MOV     R2,#0x1
        MOV     R3,#0x0
        MOV     DPTR,#GenericApp_TaskID
        MOVX    A,@DPTR
        MOV     R1,A
        LCALL   ??osal_start_timerEx?relay; Banked call to: osal_start_timerEx
//  345           }
//  346           break;
//  347 
//  348         default:
//  349           break;
//  350       }
//  351 
//  352       // Release the memory
//  353       osal_msg_deallocate( (uint8 *)MSGpkt );
??GenericApp_ProcessEvent_4:
        ; Setup parameters for call to function osal_msg_deallocate
        MOV     A,R6
        MOV     R2,A
        MOV     A,R7
        MOV     R3,A
        LCALL   ??osal_msg_deallocate?relay; Banked call to: osal_msg_deallocate
//  354 
//  355       // Next
//  356       MSGpkt = (afIncomingMSGPacket_t *)osal_msg_receive( GenericApp_TaskID );
        ; Setup parameters for call to function osal_msg_receive
??GenericApp_ProcessEvent_1:
        MOV     DPTR,#GenericApp_TaskID
        MOVX    A,@DPTR
        MOV     R1,A
        LCALL   ??osal_msg_receive?relay; Banked call to: osal_msg_receive
        MOV     ?V0,R2
        MOV     ?V1,R3
        MOV     R6,?V0
        MOV     R7,?V1
        MOV     A,R6
        ORL     A,R7
        JNZ     $+5
        LJMP    ??GenericApp_ProcessEvent_5 & 0xFFFF
        MOV     DPL,R6
        MOV     DPH,R7
        MOVX    A,@DPTR
        ADD     A,#-0x1a
        JNZ     $+5
        LJMP    ??GenericApp_ProcessEvent_6 & 0xFFFF
        ADD     A,#0x5a
        JNZ     $+5
        LJMP    ??GenericApp_ProcessEvent_7 & 0xFFFF
        ADD     A,#-0x11
        JZ      ??GenericApp_ProcessEvent_2
        ADD     A,#-0x2
        JNZ     ??GenericApp_ProcessEvent_4
        MOV     A,R6
        ADD     A,#0xc
        MOV     DPL,A
        CLR     A
        ADDC    A,R7
        MOV     DPH,A
        MOVX    A,@DPTR
        MOV     ?V0,A
        INC     DPTR
        MOVX    A,@DPTR
        MOV     ?V1,A
        MOV     R0,#?V0
        LCALL   ?US_SWITCH_SPARSE
`?<Jumptable for GenericApp_ProcessEvent>_0`:
        DATA
        DATA16
        DATA
        DATA16
        DATA
        DATA16
        DW        0
        DATA
        DATA16
        DATA
        DATA16
        DATA
        DATA16
        DW        2
        DATA
        DATA16
        DATA
        DATA16
        DATA
        DATA16
        DW        32774
        DATA
        DATA16
        DATA
        DATA16
        DATA
        DATA16
        DW        ??GenericApp_ProcessEvent_8
        DATA
        DATA16
        DATA
        DATA16
        DATA
        DATA16
        DW        32800
        DATA
        DATA16
        DATA
        DATA16
        DATA
        DATA16
        DW        ??GenericApp_ProcessEvent_9
        DATA
        DATA16
        DATA
        DATA16
        DW        ??GenericApp_ProcessEvent_4
        CODE
??GenericApp_ProcessEvent_8:
        ; Setup parameters for call to function ZDO_ParseEPListRsp
        MOV     A,R6
        MOV     R2,A
        MOV     A,R7
        MOV     R3,A
        LCALL   ??ZDO_ParseEPListRsp?relay; Banked call to: ZDO_ParseEPListRsp
        MOV     ?V0,R2
        MOV     ?V1,R3
        MOV     A,R2
        ORL     A,?V1
        JZ      ??GenericApp_ProcessEvent_4
        MOV     DPL,R2
        MOV     DPH,R3
        MOVX    A,@DPTR
        JNZ     ??GenericApp_ProcessEvent_10
        INC     DPTR
        INC     DPTR
        INC     DPTR
        MOVX    A,@DPTR
        JZ      ??GenericApp_ProcessEvent_10
        MOV     DPTR,#GenericApp_DstAddr + 8
        MOV     A,#0x2
        MOVX    @DPTR,A
        MOV     DPL,R2
        MOV     DPH,R3
        INC     DPTR
        MOVX    A,@DPTR
        MOV     R0,A
        INC     DPTR
        MOVX    A,@DPTR
        MOV     R1,A
        MOV     DPTR,#GenericApp_DstAddr
        MOV     A,R0
        MOVX    @DPTR,A
        INC     DPTR
        MOV     A,R1
        MOVX    @DPTR,A
        MOV     DPL,R2
        MOV     DPH,R3
        INC     DPTR
        INC     DPTR
        INC     DPTR
        INC     DPTR
        MOVX    A,@DPTR
        MOV     DPTR,#GenericApp_DstAddr + 9
        MOVX    @DPTR,A
        ; Setup parameters for call to function HalLedSet
        MOV     R2,#0x1
        MOV     R1,#0x8
        LCALL   ??HalLedSet?relay    ; Banked call to: HalLedSet
??GenericApp_ProcessEvent_10:
        ; Setup parameters for call to function osal_mem_free
        MOV     R2,?V0
        MOV     R3,?V1
        LCALL   ??osal_mem_free?relay; Banked call to: osal_mem_free
        LJMP    ??GenericApp_ProcessEvent_4 & 0xFFFF
??GenericApp_ProcessEvent_9:
        MOV     A,R6
        ADD     A,#0x13
        MOV     DPL,A
        CLR     A
        ADDC    A,R7
        MOV     DPH,A
        MOVX    A,@DPTR
        MOV     R0,A
        INC     DPTR
        MOVX    A,@DPTR
        MOV     DPH,A
        MOV     DPL,R0
        MOVX    A,@DPTR
        JNZ     ??GenericApp_ProcessEvent_11
        ; Setup parameters for call to function HalLedSet
        MOV     R2,#0x1
??GenericApp_ProcessEvent_12:
        MOV     R1,#0x8
        LCALL   ??HalLedSet?relay    ; Banked call to: HalLedSet
        LJMP    ??GenericApp_ProcessEvent_4 & 0xFFFF
??GenericApp_ProcessEvent_11:
        ; Setup parameters for call to function HalLedSet
        MOV     R2,#0x4
        SJMP    ??GenericApp_ProcessEvent_12
??GenericApp_ProcessEvent_7:
        ; Setup parameters for call to function GenericApp_HandleKeys
        INC     DPTR
        INC     DPTR
        INC     DPTR
        MOVX    A,@DPTR
        MOV     R2,A
        MOV     DPL,R6
        MOV     DPH,R7
        INC     DPTR
        INC     DPTR
        MOVX    A,@DPTR
        MOV     R1,A
        LCALL   ??GenericApp_HandleKeys?relay; Banked call to: GenericApp_HandleKeys
        LJMP    ??GenericApp_ProcessEvent_4 & 0xFFFF
??GenericApp_ProcessEvent_6:
        INC     DPTR
        INC     DPTR
        INC     DPTR
        INC     DPTR
        MOVX    A,@DPTR
        XRL     A,#0x1
        JNZ     ??GenericApp_ProcessEvent_13
        INC     DPTR
        MOVX    A,@DPTR
??GenericApp_ProcessEvent_13:
        JZ      $+5
        LJMP    ??GenericApp_ProcessEvent_4 & 0xFFFF
        ; Setup parameters for call to function HalLcdWriteScreen
        MOV     R4,#`?<Constant "rcvd">` & 0xff
        MOV     R5,#(`?<Constant "rcvd">` >> 8) & 0xff
        MOV     A,R6
        ADD     A,#0x22
        MOV     DPL,A
        CLR     A
        ADDC    A,R7
        MOV     DPH,A
        MOVX    A,@DPTR
        MOV     R2,A
        INC     DPTR
        MOVX    A,@DPTR
        MOV     R3,A
        LCALL   ??HalLcdWriteScreen?relay; Banked call to: HalLcdWriteScreen
        MOV     DPTR,#count
        MOVX    A,@DPTR
        ADD     A,#0x1
        MOVX    @DPTR,A
        INC     DPTR
        MOVX    A,@DPTR
        ADDC    A,#0x0
        MOVX    @DPTR,A
        ; Setup parameters for call to function HalLcdWriteValue
        MOV     ?V0,#0x3
        MOV     R0,#?V0
        LCALL   ?PUSH_XSTACK_I_ONE
          CFI CFA_XSP16 add(XSP16, 27)
        MOV     R1,#0xa
        MOV     DPTR,#count
        MOVX    A,@DPTR
        MOV     ?V0,A
        INC     DPTR
        MOVX    A,@DPTR
        MOV     R2,?V0
        MOV     R3,A
        CLR     A
        MOV     R4,A
        MOV     R5,A
        LCALL   ??HalLcdWriteValue?relay; Banked call to: HalLcdWriteValue
        MOV     A,#0x1
        LCALL   ?DEALLOC_XSTACK8
          CFI CFA_XSP16 add(XSP16, 26)
        LJMP    ??GenericApp_ProcessEvent_4 & 0xFFFF
//  357     }
//  358 
//  359     // return unprocessed events
//  360     return (events ^ SYS_EVENT_MSG);
??GenericApp_ProcessEvent_5:
        MOV     R2,?V2
        MOV     A,?V3
        XRL     A,#0x80
        MOV     R3,A
        LJMP    ??GenericApp_ProcessEvent_14 & 0xFFFF
//  361   }
//  362 
//  363   // Send a message out - This event is generated by a timer
//  364   //  (setup in GenericApp_Init()).
//  365   if ( events & GENERICAPP_SEND_MSG_EVT )
??GenericApp_ProcessEvent_0:
        MOV     A,R2
        MOV     C,0xE0 /* A   */.0
        JNC     ??GenericApp_ProcessEvent_15
//  366   {
//  367     // Send "the" message
//  368     GenericApp_SendTheMessage();
        MOV     DPTR,#`?<Constant "Hello World">`
        MOV     R4,?XSP + 0
        MOV     R5,?XSP + 1
        MOV     A,#0xc
        LCALL   ?MOVE_LONG8_XDATA_XDATA
        ; Setup parameters for call to function AF_DataRequest
        MOV     ?V0,#0x1e
        MOV     R0,#?V0
        LCALL   ?PUSH_XSTACK_I_ONE
          CFI CFA_XSP16 add(XSP16, 27)
        MOV     ?V0,#GenericApp_TransID & 0xff
        MOV     ?V1,#(GenericApp_TransID >> 8) & 0xff
        MOV     R0,#?V0
        LCALL   ?PUSH_XSTACK_I_TWO
          CFI CFA_XSP16 add(XSP16, 29)
        MOV     A,#0x3
        LCALL   ?XSTACK_DISP100_8
        MOV     ?V0,R0
        MOV     ?V1,R1
        MOV     R0,#?V0
        LCALL   ?PUSH_XSTACK_I_TWO
          CFI CFA_XSP16 add(XSP16, 31)
        ; Setup parameters for call to function osal_strlen
        MOV     A,#0x5
        LCALL   ?XSTACK_DISP101_8
        LCALL   ??osal_strlen?relay  ; Banked call to: osal_strlen
        MOV     A,R2
        ADD     A,#0x1
        MOV     ?V0,A
        CLR     A
        ADDC    A,#0x0
        MOV     ?V1,A
        MOV     R0,#?V0
        LCALL   ?PUSH_XSTACK_I_TWO
          CFI CFA_XSP16 add(XSP16, 33)
        MOV     ?V0,#0x1
        MOV     ?V1,#0x0
        MOV     R0,#?V0
        LCALL   ?PUSH_XSTACK_I_TWO
          CFI CFA_XSP16 add(XSP16, 35)
        MOV     R1,#0x30
        MOV     R4,#GenericApp_epDesc & 0xff
        MOV     R5,#(GenericApp_epDesc >> 8) & 0xff
        MOV     R2,#GenericApp_DstAddr & 0xff
        MOV     R3,#(GenericApp_DstAddr >> 8) & 0xff
        LCALL   ??AF_DataRequest?relay; Banked call to: AF_DataRequest
        MOV     A,#0x9
        LCALL   ?DEALLOC_XSTACK8
          CFI CFA_XSP16 add(XSP16, 26)
//  369 
//  370     // Setup to send message again
//  371     osal_start_timerEx( GenericApp_TaskID,
//  372                         GENERICAPP_SEND_MSG_EVT,
//  373                         GENERICAPP_SEND_MSG_TIMEOUT );
        ; Setup parameters for call to function osal_start_timerEx
        MOV     R4,#-0x78
        MOV     R5,#0x13
        MOV     R2,#0x1
        MOV     R3,#0x0
        MOV     DPTR,#GenericApp_TaskID
        MOVX    A,@DPTR
        MOV     R1,A
        LCALL   ??osal_start_timerEx?relay; Banked call to: osal_start_timerEx
//  374 
//  375     // return unprocessed events
//  376     return (events ^ GENERICAPP_SEND_MSG_EVT);
        MOV     A,?V2
        XRL     A,#0x1
        MOV     R2,A
        MOV     R3,?V3
        SJMP    ??GenericApp_ProcessEvent_14
//  377   }
//  378 
//  379   
//  380 #if defined( IAR_ARMCM3_LM )
//  381   // Receive a message from the RTOS queue
//  382   if ( events & GENERICAPP_RTOS_MSG_EVT )
//  383   {
//  384     // Process message from RTOS queue
//  385     GenericApp_ProcessRtosMessage();
//  386 
//  387     // return unprocessed events
//  388     return (events ^ GENERICAPP_RTOS_MSG_EVT);
//  389   }
//  390 #endif
//  391 
//  392   // Discard unknown events
//  393   return 0;
??GenericApp_ProcessEvent_15:
        MOV     R2,#0x0
        MOV     R3,#0x0
??GenericApp_ProcessEvent_14:
        MOV     A,#0xc
        LCALL   ?DEALLOC_XSTACK8
          CFI CFA_XSP16 add(XSP16, 14)
        MOV     R7,#0x6
        LJMP    ?BANKED_LEAVE_XDATA
          CFI EndBlock cfiBlock4
//  394 }
//  395 
//  396 /*********************************************************************
//  397  * Event Generation Functions
//  398  */
//  399 
//  400 /*********************************************************************
//  401  * @fn      GenericApp_ProcessZDOMsgs()
//  402  *
//  403  * @brief   Process response messages
//  404  *
//  405  * @param   none
//  406  *
//  407  * @return  none
//  408  */
//  409 static void GenericApp_ProcessZDOMsgs( zdoIncomingMsg_t *inMsg )
//  410 {
//  411   switch ( inMsg->clusterID )
//  412   {
//  413     case End_Device_Bind_rsp:
//  414       if ( ZDO_ParseBindRsp( inMsg ) == ZSuccess )
//  415       {
//  416         // Light LED
//  417         HalLedSet( HAL_LED_4, HAL_LED_MODE_ON );
//  418       }
//  419 #if defined( BLINK_LEDS )
//  420       else
//  421       {
//  422         // Flash LED to show failure
//  423         HalLedSet ( HAL_LED_4, HAL_LED_MODE_FLASH );
//  424       }
//  425 #endif
//  426       break;
//  427 
//  428     case Match_Desc_rsp:
//  429       {
//  430         ZDO_ActiveEndpointRsp_t *pRsp = ZDO_ParseEPListRsp( inMsg );
//  431         if ( pRsp )
//  432         {
//  433           if ( pRsp->status == ZSuccess && pRsp->cnt )
//  434           {
//  435             GenericApp_DstAddr.addrMode = (afAddrMode_t)Addr16Bit;
//  436             GenericApp_DstAddr.addr.shortAddr = pRsp->nwkAddr;
//  437             // Take the first endpoint, Can be changed to search through endpoints
//  438             GenericApp_DstAddr.endPoint = pRsp->epList[0];
//  439 
//  440             // Light LED
//  441             HalLedSet( HAL_LED_4, HAL_LED_MODE_ON );
//  442           }
//  443           osal_mem_free( pRsp );
//  444         }
//  445       }
//  446       break;
//  447   }
//  448 }
//  449 
//  450 /*********************************************************************
//  451  * @fn      GenericApp_HandleKeys
//  452  *
//  453  * @brief   Handles all key events for this device.
//  454  *
//  455  * @param   shift - true if in shift/alt.
//  456  * @param   keys - bit field for key events. Valid entries:
//  457  *                 HAL_KEY_SW_4
//  458  *                 HAL_KEY_SW_3
//  459  *                 HAL_KEY_SW_2
//  460  *                 HAL_KEY_SW_1
//  461  *
//  462  * @return  none
//  463  */

        RSEG BANKED_CODE:CODE:NOROOT(0)
//  464 static void GenericApp_HandleKeys( uint8 shift, uint8 keys )
GenericApp_HandleKeys:
          CFI Block cfiBlock5 Using cfiCommon0
          CFI Function GenericApp_HandleKeys
        CODE
//  465 {
        FUNCALL GenericApp_HandleKeys, HalLedSet
        LOCFRAME ISTACK, 0, STACK
        LOCFRAME PSTACK, 0, STACK
        LOCFRAME XSTACK, 20, STACK
        LOCFRAME IOVERLAY, 0, STATIC
        LOCFRAME DOVERLAY, 0, STATIC
        ARGFRAME ISTACK, 0, STACK
        ARGFRAME PSTACK, 0, STACK
        ARGFRAME XSTACK, 20, STACK
        ARGFRAME IOVERLAY, 0, STATIC
        ARGFRAME DOVERLAY, 0, STATIC
        FUNCALL GenericApp_HandleKeys, NLME_GetShortAddr
        LOCFRAME ISTACK, 0, STACK
        LOCFRAME PSTACK, 0, STACK
        LOCFRAME XSTACK, 20, STACK
        LOCFRAME IOVERLAY, 0, STATIC
        LOCFRAME DOVERLAY, 0, STATIC
        ARGFRAME ISTACK, 0, STACK
        ARGFRAME PSTACK, 0, STACK
        ARGFRAME XSTACK, 20, STACK
        ARGFRAME IOVERLAY, 0, STATIC
        ARGFRAME DOVERLAY, 0, STATIC
        FUNCALL GenericApp_HandleKeys, ZDP_EndDeviceBindReq
        LOCFRAME ISTACK, 0, STACK
        LOCFRAME PSTACK, 0, STACK
        LOCFRAME XSTACK, 29, STACK
        LOCFRAME IOVERLAY, 0, STATIC
        LOCFRAME DOVERLAY, 0, STATIC
        ARGFRAME ISTACK, 0, STACK
        ARGFRAME PSTACK, 0, STACK
        ARGFRAME XSTACK, 29, STACK
        ARGFRAME IOVERLAY, 0, STATIC
        ARGFRAME DOVERLAY, 0, STATIC
        FUNCALL GenericApp_HandleKeys, HalLedSet
        LOCFRAME ISTACK, 0, STACK
        LOCFRAME PSTACK, 0, STACK
        LOCFRAME XSTACK, 20, STACK
        LOCFRAME IOVERLAY, 0, STATIC
        LOCFRAME DOVERLAY, 0, STATIC
        ARGFRAME ISTACK, 0, STACK
        ARGFRAME PSTACK, 0, STACK
        ARGFRAME XSTACK, 20, STACK
        ARGFRAME IOVERLAY, 0, STATIC
        ARGFRAME DOVERLAY, 0, STATIC
        FUNCALL GenericApp_HandleKeys, NLME_GetShortAddr
        LOCFRAME ISTACK, 0, STACK
        LOCFRAME PSTACK, 0, STACK
        LOCFRAME XSTACK, 20, STACK
        LOCFRAME IOVERLAY, 0, STATIC
        LOCFRAME DOVERLAY, 0, STATIC
        ARGFRAME ISTACK, 0, STACK
        ARGFRAME PSTACK, 0, STACK
        ARGFRAME XSTACK, 20, STACK
        ARGFRAME IOVERLAY, 0, STATIC
        ARGFRAME DOVERLAY, 0, STATIC
        FUNCALL GenericApp_HandleKeys, ZDP_EndDeviceBindReq
        LOCFRAME ISTACK, 0, STACK
        LOCFRAME PSTACK, 0, STACK
        LOCFRAME XSTACK, 29, STACK
        LOCFRAME IOVERLAY, 0, STATIC
        LOCFRAME DOVERLAY, 0, STATIC
        ARGFRAME ISTACK, 0, STACK
        ARGFRAME PSTACK, 0, STACK
        ARGFRAME XSTACK, 29, STACK
        ARGFRAME IOVERLAY, 0, STATIC
        ARGFRAME DOVERLAY, 0, STATIC
        FUNCALL GenericApp_HandleKeys, HalLedSet
        LOCFRAME ISTACK, 0, STACK
        LOCFRAME PSTACK, 0, STACK
        LOCFRAME XSTACK, 20, STACK
        LOCFRAME IOVERLAY, 0, STATIC
        LOCFRAME DOVERLAY, 0, STATIC
        ARGFRAME ISTACK, 0, STACK
        ARGFRAME PSTACK, 0, STACK
        ARGFRAME XSTACK, 20, STACK
        ARGFRAME IOVERLAY, 0, STATIC
        ARGFRAME DOVERLAY, 0, STATIC
        FUNCALL GenericApp_HandleKeys, ZDP_MatchDescReq
        LOCFRAME ISTACK, 0, STACK
        LOCFRAME PSTACK, 0, STACK
        LOCFRAME XSTACK, 28, STACK
        LOCFRAME IOVERLAY, 0, STATIC
        LOCFRAME DOVERLAY, 0, STATIC
        ARGFRAME ISTACK, 0, STACK
        ARGFRAME PSTACK, 0, STACK
        ARGFRAME XSTACK, 28, STACK
        ARGFRAME IOVERLAY, 0, STATIC
        ARGFRAME DOVERLAY, 0, STATIC
        REQUIRE ?V0
        REQUIRE ?V1
        REQUIRE ?V2
        MOV     A,#-0xb
        LCALL   ?BANKED_ENTER_XDATA
          CFI DPH0 load(1, XDATA, add(CFA_XSP16, literal(-1)))
          CFI DPL0 load(1, XDATA, add(CFA_XSP16, literal(-2)))
          CFI ?BRET_EXT load(1, XDATA, add(CFA_XSP16, literal(-3)))
          CFI ?RET_HIGH load(1, XDATA, add(CFA_XSP16, literal(-4)))
          CFI ?RET_LOW load(1, XDATA, add(CFA_XSP16, literal(-5)))
          CFI R7 load(1, XDATA, add(CFA_XSP16, literal(-6)))
          CFI V2 load(1, XDATA, add(CFA_XSP16, literal(-7)))
          CFI V1 load(1, XDATA, add(CFA_XSP16, literal(-8)))
          CFI V0 load(1, XDATA, add(CFA_XSP16, literal(-9)))
          CFI VB load(1, XDATA, add(CFA_XSP16, literal(-10)))
          CFI R6 load(1, XDATA, add(CFA_XSP16, literal(-11)))
          CFI CFA_SP SP+0
          CFI CFA_XSP16 add(XSP16, 11)
        ; Saved register size: 11
        ; Auto size: 9
        MOV     A,#-0x9
        LCALL   ?ALLOC_XSTACK8
          CFI CFA_XSP16 add(XSP16, 20)
        MOV     A,R1
        MOV     R7,A
        MOV     A,R2
        MOV     R6,A
//  466   zAddrType_t dstAddr;
//  467 
//  468   // Shift is used to make each button/switch dual purpose.
//  469   if ( shift )
        MOV     A,R7
        JZ      $+5
        LJMP    ??GenericApp_HandleKeys_0 & 0xFFFF
//  470   {
//  471     if ( keys & HAL_KEY_SW_1 )
//  472     {
//  473     }
//  474     if ( keys & HAL_KEY_SW_2 )
//  475     {
//  476     }
//  477     if ( keys & HAL_KEY_SW_3 )
//  478     {
//  479     }
//  480     if ( keys & HAL_KEY_SW_4 )
//  481     {
//  482     }
//  483   }
//  484   else
//  485   {
//  486     if ( keys & HAL_KEY_SW_1 )
        MOV     A,R6
        MOV     C,0xE0 /* A   */.0
        JNC     ??GenericApp_HandleKeys_1
//  487     {
//  488       #if !defined(COORDINATOR)
//  489   HalLedSet ( HAL_LED_4, HAL_LED_MODE_OFF );
        ; Setup parameters for call to function HalLedSet
        MOV     R2,#0x0
        MOV     R1,#0x8
        LCALL   ??HalLedSet?relay    ; Banked call to: HalLedSet
//  490 
//  491   dstAddr.addrMode = Addr16Bit;
        MOV     A,#0x8
        LCALL   ?XSTACK_DISP0_8
        LCALL   ?Subroutine0 & 0xFFFF
//  492   dstAddr.addr.shortAddr = 0x0000; // Coordinator
//  493   ZDP_EndDeviceBindReq( &dstAddr, NLME_GetShortAddr(),
//  494                             GenericApp_ctrlEpDesc.endPoint,
//  495                             GENERICAPP_PROFID,
//  496                             GENERICAPP_MAX_CTRL_CLUSTERS, (cId_t *)GenericApp_ClusterCtrlList,
//  497                             GENERICAPP_MAX_CTRL_CLUSTERS, (cId_t *)GenericApp_ClusterCtrlList,
//  498                             FALSE );
??CrossCallReturnLabel_0:
        ; Setup parameters for call to function NLME_GetShortAddr
        LCALL   ??NLME_GetShortAddr?relay; Banked call to: NLME_GetShortAddr
        MOV     ?V0,R2
        MOV     ?V1,R3
        MOV     R4,?V0
        MOV     R5,?V1
        MOV     ?V0,#GenericApp_ClusterCtrlList & 0xff
        MOV     ?V1,#(GenericApp_ClusterCtrlList >> 8) & 0xff
        ; Setup parameters for call to function ZDP_EndDeviceBindReq
        MOV     ?V2,#0x0
        MOV     R0,#?V2
        LCALL   ?PUSH_XSTACK_I_ONE
          CFI CFA_XSP16 add(XSP16, 21)
        MOV     R0,#?V0
        LCALL   ?PUSH_XSTACK_I_TWO
          CFI CFA_XSP16 add(XSP16, 23)
        MOV     ?V2,#0x1
        MOV     R0,#?V2
        LCALL   ?PUSH_XSTACK_I_ONE
          CFI CFA_XSP16 add(XSP16, 24)
        MOV     R0,#?V0
        LCALL   ?PUSH_XSTACK_I_TWO
          CFI CFA_XSP16 add(XSP16, 26)
        MOV     ?V0,#0x1
        MOV     R0,#?V0
        LCALL   ?PUSH_XSTACK_I_ONE
          CFI CFA_XSP16 add(XSP16, 27)
        MOV     ?V0,#0x4
        MOV     ?V1,#0xf
        MOV     R0,#?V0
        LCALL   ?PUSH_XSTACK_I_TWO
          CFI CFA_XSP16 add(XSP16, 29)
        MOV     DPTR,#GenericApp_ctrlEpDesc
        MOVX    A,@DPTR
        MOV     R1,A
        MOV     A,#0x9
        LCALL   ?XSTACK_DISP101_8
        LCALL   ??ZDP_EndDeviceBindReq?relay; Banked call to: ZDP_EndDeviceBindReq
        MOV     A,#0x9
        LCALL   ?DEALLOC_XSTACK8
          CFI CFA_XSP16 add(XSP16, 20)
//  499 
//  500   #endif
//  501     }
//  502 
//  503     if ( keys & HAL_KEY_SW_2 )
??GenericApp_HandleKeys_1:
        MOV     A,R6
        MOV     C,0xE0 /* A   */.1
        JNC     ??GenericApp_HandleKeys_2
//  504     {
//  505       HalLedSet ( HAL_LED_4, HAL_LED_MODE_OFF );
        ; Setup parameters for call to function HalLedSet
        MOV     R2,#0x0
        MOV     R1,#0x8
        LCALL   ??HalLedSet?relay    ; Banked call to: HalLedSet
//  506 
//  507       // Initiate an End Device Bind Request for the mandatory endpoint
//  508       dstAddr.addrMode = Addr16Bit;
        MOV     A,#0x8
        LCALL   ?XSTACK_DISP0_8
        LCALL   ?Subroutine0 & 0xFFFF
//  509       dstAddr.addr.shortAddr = 0x0000; // Coordinator
//  510       ZDP_EndDeviceBindReq( &dstAddr, NLME_GetShortAddr(),
//  511                             GenericApp_epDesc.endPoint,
//  512                             GENERICAPP_PROFID,
//  513                             GENERICAPP_MAX_CLUSTERS, (cId_t *)GenericApp_ClusterList,
//  514                             GENERICAPP_MAX_CLUSTERS, (cId_t *)GenericApp_ClusterList,
//  515                             FALSE );
??CrossCallReturnLabel_1:
        ; Setup parameters for call to function NLME_GetShortAddr
        LCALL   ??NLME_GetShortAddr?relay; Banked call to: NLME_GetShortAddr
        MOV     ?V0,R2
        MOV     ?V1,R3
        MOV     R4,?V0
        MOV     R5,?V1
        MOV     ?V0,#GenericApp_ClusterList & 0xff
        MOV     ?V1,#(GenericApp_ClusterList >> 8) & 0xff
        ; Setup parameters for call to function ZDP_EndDeviceBindReq
        MOV     ?V2,#0x0
        MOV     R0,#?V2
        LCALL   ?PUSH_XSTACK_I_ONE
          CFI CFA_XSP16 add(XSP16, 21)
        MOV     R0,#?V0
        LCALL   ?PUSH_XSTACK_I_TWO
          CFI CFA_XSP16 add(XSP16, 23)
        MOV     ?V2,#0x1
        MOV     R0,#?V2
        LCALL   ?PUSH_XSTACK_I_ONE
          CFI CFA_XSP16 add(XSP16, 24)
        MOV     R0,#?V0
        LCALL   ?PUSH_XSTACK_I_TWO
          CFI CFA_XSP16 add(XSP16, 26)
        MOV     ?V0,#0x1
        MOV     R0,#?V0
        LCALL   ?PUSH_XSTACK_I_ONE
          CFI CFA_XSP16 add(XSP16, 27)
        MOV     ?V0,#0x4
        MOV     ?V1,#0xf
        MOV     R0,#?V0
        LCALL   ?PUSH_XSTACK_I_TWO
          CFI CFA_XSP16 add(XSP16, 29)
        MOV     DPTR,#GenericApp_epDesc
        MOVX    A,@DPTR
        MOV     R1,A
        MOV     A,#0x9
        LCALL   ?XSTACK_DISP101_8
        LCALL   ??ZDP_EndDeviceBindReq?relay; Banked call to: ZDP_EndDeviceBindReq
        MOV     A,#0x9
        LCALL   ?DEALLOC_XSTACK8
          CFI CFA_XSP16 add(XSP16, 20)
//  516     }
//  517 
//  518     if ( keys & HAL_KEY_SW_3 )
//  519     {
//  520     }
//  521 
//  522     if ( keys & HAL_KEY_SW_4 )
??GenericApp_HandleKeys_2:
        MOV     A,R6
        MOV     C,0xE0 /* A   */.3
        JNC     ??GenericApp_HandleKeys_0
//  523     {
//  524       HalLedSet ( HAL_LED_4, HAL_LED_MODE_OFF );
        ; Setup parameters for call to function HalLedSet
        MOV     R2,#0x0
        MOV     R1,#0x8
        LCALL   ??HalLedSet?relay    ; Banked call to: HalLedSet
//  525       // Initiate a Match Description Request (Service Discovery)
//  526       dstAddr.addrMode = AddrBroadcast;
        MOV     A,#0x8
        LCALL   ?XSTACK_DISP0_8
        MOV     A,#0xf
        MOVX    @DPTR,A
//  527       dstAddr.addr.shortAddr = NWK_BROADCAST_SHORTADDR;
        MOV     DPL,?XSP + 0
        MOV     DPH,?XSP + 1
        MOV     A,#-0x1
        MOVX    @DPTR,A
        INC     DPTR
        MOVX    @DPTR,A
//  528       ZDP_MatchDescReq( &dstAddr, NWK_BROADCAST_SHORTADDR,
//  529                         GENERICAPP_PROFID,
//  530                         GENERICAPP_MAX_CLUSTERS, (cId_t *)GenericApp_ClusterList,
//  531                         GENERICAPP_MAX_CLUSTERS, (cId_t *)GenericApp_ClusterList,
//  532                         FALSE );
        MOV     ?V0,#GenericApp_ClusterList & 0xff
        MOV     ?V1,#(GenericApp_ClusterList >> 8) & 0xff
        ; Setup parameters for call to function ZDP_MatchDescReq
        MOV     ?V2,#0x0
        MOV     R0,#?V2
        LCALL   ?PUSH_XSTACK_I_ONE
          CFI CFA_XSP16 add(XSP16, 21)
        MOV     R0,#?V0
        LCALL   ?PUSH_XSTACK_I_TWO
          CFI CFA_XSP16 add(XSP16, 23)
        MOV     ?V2,#0x1
        MOV     R0,#?V2
        LCALL   ?PUSH_XSTACK_I_ONE
          CFI CFA_XSP16 add(XSP16, 24)
        MOV     R0,#?V0
        LCALL   ?PUSH_XSTACK_I_TWO
          CFI CFA_XSP16 add(XSP16, 26)
        MOV     ?V0,#0x4
        MOV     ?V1,#0xf
        MOV     R0,#?V0
        LCALL   ?PUSH_XSTACK_I_TWO
          CFI CFA_XSP16 add(XSP16, 28)
        MOV     R1,#0x1
        MOV     R4,#-0x1
        MOV     R5,#-0x1
        MOV     A,#0x8
        LCALL   ?XSTACK_DISP101_8
        LCALL   ??ZDP_MatchDescReq?relay; Banked call to: ZDP_MatchDescReq
        MOV     A,#0x8
        LCALL   ?DEALLOC_XSTACK8
          CFI CFA_XSP16 add(XSP16, 20)
//  533     }
//  534   }
//  535 }
??GenericApp_HandleKeys_0:
        MOV     A,#0x9
        LCALL   ?DEALLOC_XSTACK8
          CFI CFA_XSP16 add(XSP16, 11)
        MOV     R7,#0x3
        LJMP    ?BANKED_LEAVE_XDATA
          CFI EndBlock cfiBlock5

        RSEG BANKED_CODE:CODE:NOROOT(0)
?Subroutine0:
          CFI Block cfiCond6 Using cfiCommon0
          CFI Function GenericApp_HandleKeys
          CFI Conditional ??CrossCallReturnLabel_0
          CFI R6 load(1, XDATA, add(CFA_XSP16, literal(-11)))
          CFI VB load(1, XDATA, add(CFA_XSP16, literal(-10)))
          CFI V0 load(1, XDATA, add(CFA_XSP16, literal(-9)))
          CFI V1 load(1, XDATA, add(CFA_XSP16, literal(-8)))
          CFI V2 load(1, XDATA, add(CFA_XSP16, literal(-7)))
          CFI R7 load(1, XDATA, add(CFA_XSP16, literal(-6)))
          CFI ?RET_LOW load(1, XDATA, add(CFA_XSP16, literal(-5)))
          CFI ?RET_HIGH load(1, XDATA, add(CFA_XSP16, literal(-4)))
          CFI ?BRET_EXT load(1, XDATA, add(CFA_XSP16, literal(-3)))
          CFI DPL0 load(1, XDATA, add(CFA_XSP16, literal(-2)))
          CFI DPH0 load(1, XDATA, add(CFA_XSP16, literal(-1)))
          CFI CFA_SP SP+-2
          CFI CFA_XSP16 add(XSP16, 20)
          CFI Block cfiCond7 Using cfiCommon0
          CFI (cfiCond7) Function GenericApp_HandleKeys
          CFI (cfiCond7) Conditional ??CrossCallReturnLabel_1
          CFI (cfiCond7) R6 load(1, XDATA, add(CFA_XSP16, literal(-11)))
          CFI (cfiCond7) VB load(1, XDATA, add(CFA_XSP16, literal(-10)))
          CFI (cfiCond7) V0 load(1, XDATA, add(CFA_XSP16, literal(-9)))
          CFI (cfiCond7) V1 load(1, XDATA, add(CFA_XSP16, literal(-8)))
          CFI (cfiCond7) V2 load(1, XDATA, add(CFA_XSP16, literal(-7)))
          CFI (cfiCond7) R7 load(1, XDATA, add(CFA_XSP16, literal(-6)))
          CFI (cfiCond7) ?RET_LOW load(1, XDATA, add(CFA_XSP16, literal(-5)))
          CFI (cfiCond7) ?RET_HIGH load(1, XDATA, add(CFA_XSP16, literal(-4)))
          CFI (cfiCond7) ?BRET_EXT load(1, XDATA, add(CFA_XSP16, literal(-3)))
          CFI (cfiCond7) DPL0 load(1, XDATA, add(CFA_XSP16, literal(-2)))
          CFI (cfiCond7) DPH0 load(1, XDATA, add(CFA_XSP16, literal(-1)))
          CFI (cfiCond7) CFA_SP SP+-2
          CFI (cfiCond7) CFA_XSP16 add(XSP16, 20)
          CFI Block cfiPicker8 Using cfiCommon1
          CFI (cfiPicker8) NoFunction
          CFI (cfiPicker8) Picker
        MOV     A,#0x2
        MOVX    @DPTR,A
        MOV     DPL,?XSP + 0
        MOV     DPH,?XSP + 1
        CLR     A
        MOVX    @DPTR,A
        INC     DPTR
        MOVX    @DPTR,A
        RET
          CFI EndBlock cfiCond6
          CFI EndBlock cfiCond7
          CFI EndBlock cfiPicker8

        RSEG BANK_RELAYS:CODE:REORDER:NOROOT(0)
??GenericApp_Init?relay:
        CODE
        LCALL   ?BDISPATCH
        DATA24
        DC24    GenericApp_Init

        RSEG BANK_RELAYS:CODE:REORDER:NOROOT(0)
??GenericApp_ProcessEvent?relay:
        CODE
        LCALL   ?BDISPATCH
        DATA24
        DC24    GenericApp_ProcessEvent

        RSEG BANK_RELAYS:CODE:REORDER:NOROOT(0)
??GenericApp_HandleKeys?relay:
        CODE
        LCALL   ?BDISPATCH
        DATA24
        DC24    GenericApp_HandleKeys

        RSEG XDATA_ROM_C:CONST:REORDER:NOROOT(0)
        DATA8
`?<Constant "GenericApp">`:
        DB "GenericApp"

        RSEG XDATA_ROM_C:CONST:REORDER:NOROOT(0)
        DATA8
`?<Constant "rcvd">`:
        DB "rcvd"

        RSEG XDATA_ROM_C:CONST:REORDER:NOROOT(0)
        DATA8
`?<Constant "Hello World">`:
        DB "Hello World"

        END
//  536 
//  537 /*********************************************************************
//  538  * LOCAL FUNCTIONS
//  539  */
//  540 
//  541 /*********************************************************************
//  542  * @fn      GenericApp_MessageMSGCB
//  543  *
//  544  * @brief   Data message processor callback.  This function processes
//  545  *          any incoming data - probably from other devices.  So, based
//  546  *          on cluster ID, perform the intended action.
//  547  *
//  548  * @param   none
//  549  *
//  550  * @return  none
//  551  */
//  552 static void GenericApp_MessageMSGCB( afIncomingMSGPacket_t *pkt )
//  553 {
//  554   switch ( pkt->clusterId )
//  555   {
//  556     case GENERICAPP_CLUSTERID:
//  557       // "the" message
//  558 #if defined( LCD_SUPPORTED )
//  559       HalLcdWriteScreen( (char*)pkt->cmd.Data, "rcvd" );
//  560       count++;
//  561       HalLcdWriteValue(count, 10, HAL_LCD_LINE_3);
//  562 #elif defined( WIN32 )
//  563       WPRINTSTR( pkt->cmd.Data );
//  564 #endif
//  565       break;
//  566   }
//  567 }
//  568 
//  569 /*********************************************************************
//  570  * @fn      GenericApp_SendTheMessage
//  571  *
//  572  * @brief   Send "the" message.
//  573  *
//  574  * @param   none
//  575  *
//  576  * @return  none
//  577  */
//  578 static void GenericApp_SendTheMessage( void )
//  579 {
//  580   char theMessageData[] = "Hello World";
//  581 
//  582   if ( AF_DataRequest( &GenericApp_DstAddr, &GenericApp_epDesc,
//  583                        GENERICAPP_CLUSTERID,
//  584                        (byte)osal_strlen( theMessageData ) + 1,
//  585                        (byte *)&theMessageData,
//  586                        &GenericApp_TransID,
//  587                        AF_ACK_REQUEST|AF_DISCV_ROUTE, AF_DEFAULT_RADIUS ) == afStatus_SUCCESS )
//  588   {
//  589     // Successfully requested to be sent.
//  590   }
//  591   else
//  592   {
//  593     // Error occurred in request to send.
//  594   }
//  595 }
//  596 
//  597 #if defined( IAR_ARMCM3_LM )
//  598 /*********************************************************************
//  599  * @fn      GenericApp_ProcessRtosMessage
//  600  *
//  601  * @brief   Receive message from RTOS queue, send response back.
//  602  *
//  603  * @param   none
//  604  *
//  605  * @return  none
//  606  */
//  607 static void GenericApp_ProcessRtosMessage( void )
//  608 {
//  609   osalQueue_t inMsg;
//  610 
//  611   if ( osal_queue_receive( OsalQueue, &inMsg, 0 ) == pdPASS )
//  612   {
//  613     uint8 cmndId = inMsg.cmnd;
//  614     uint32 counter = osal_build_uint32( inMsg.cbuf, 4 );
//  615 
//  616     switch ( cmndId )
//  617     {
//  618       case CMD_INCR:
//  619         counter += 1;  /* Increment the incoming counter */
//  620                        /* Intentionally fall through next case */
//  621 
//  622       case CMD_ECHO:
//  623       {
//  624         userQueue_t outMsg;
//  625 
//  626         outMsg.resp = RSP_CODE | cmndId;  /* Response ID */
//  627         osal_buffer_uint32( outMsg.rbuf, counter );    /* Increment counter */
//  628         osal_queue_send( UserQueue1, &outMsg, 0 );  /* Send back to UserTask */
//  629         break;
//  630       }
//  631       
//  632       default:
//  633         break;  /* Ignore unknown command */    
//  634     }
//  635   }
//  636 }
//  637 #endif
//  638 
//  639 /*********************************************************************
//  640  */
// 
// 1 015 bytes in segment BANKED_CODE
//    18 bytes in segment BANK_RELAYS
//    56 bytes in segment XDATA_ROM_C
//    31 bytes in segment XDATA_Z
// 
// 1 033 bytes of CODE  memory
//    56 bytes of CONST memory
//    31 bytes of XDATA memory
//
//Errors: none
//Warnings: none
